

Microchip MPLAB XC8 Assembler V2.40 build 20220703182018 
                                                                                               Thu Mar 09 11:39:36 2023

Microchip MPLAB XC8 C Compiler v2.40 (Free license) build 20220703182018 Og1 
     1                           	processor	18F45K50
     2                           	fnconf	rparam,??,?,0
     3                           	pagewidth 120
     4                           	opt	flic
     5                           	psect	idataBANK0,global,class=CODE,delta=1,noexec
     6                           	psect	mediumconst,global,reloc=2,class=MEDIUMCONST,delta=1,noexec
     7                           	psect	cinit,global,reloc=2,class=CODE,delta=1
     8                           	psect	bssBANK0,global,class=BANK0,space=1,delta=1,lowdata,noexec
     9                           	psect	dataBANK0,global,class=BANK0,space=1,delta=1,lowdata,noexec
    10                           	psect	cstackBANK0,global,class=BANK0,space=1,delta=1,lowdata,noexec
    11                           	psect	cstackCOMRAM,global,class=COMRAM,space=1,delta=1,lowdata,noexec
    12                           	psect	text0,global,reloc=2,class=CODE,delta=1
    13                           	psect	text1,global,reloc=2,class=CODE,delta=1,group=3
    14                           	psect	text2,global,reloc=2,class=CODE,delta=1,group=1
    15                           	psect	text3,global,reloc=2,class=CODE,delta=1,group=1
    16                           	psect	text4,global,reloc=2,class=CODE,delta=1,group=1
    17                           	psect	text5,global,reloc=2,class=CODE,delta=1,group=1
    18                           	psect	text6,global,reloc=2,class=CODE,delta=1,group=3
    19                           	psect	text7,global,reloc=2,class=CODE,delta=1,group=3
    20                           	psect	text8,global,reloc=2,class=CODE,delta=1
    21                           	psect	text9,global,reloc=2,class=CODE,delta=1,group=3
    22                           	psect	text10,global,reloc=2,class=CODE,delta=1,group=2
    23                           	psect	text11,global,reloc=2,class=CODE,delta=1,group=2
    24                           	psect	text12,global,reloc=2,class=CODE,delta=1
    25                           	psect	text13,global,reloc=2,class=CODE,delta=1
    26                           	psect	text14,global,reloc=2,class=CODE,delta=1
    27                           	psect	text15,global,reloc=2,class=CODE,delta=1
    28                           	psect	text16,global,reloc=2,class=CODE,delta=1
    29                           	psect	text17,global,reloc=2,class=CODE,delta=1
    30                           	psect	text18,global,reloc=2,class=CODE,delta=1
    31                           	psect	text19,global,reloc=2,class=CODE,delta=1
    32                           	psect	text20,global,reloc=2,class=CODE,delta=1
    33                           	psect	intsave_regs,global,class=BIGRAM,space=1,delta=1,noexec
    34                           	psect	rparam,global,class=COMRAM,space=1,delta=1,noexec
    35                           	psect	idloc,global,abs,ovrld,class=IDLOC,space=5,delta=1,noexec
    36                           	psect	config,global,abs,ovrld,class=CONFIG,space=4,delta=1,noexec
    37   000000                     
    38                           ; Generated 06/04/2022 GMT
    39                           ; 
    40                           ; Copyright © 2022, Microchip Technology Inc. and its subsidiaries ("Microchip")
    41                           ; All rights reserved.
    42                           ; 
    43                           ; This software is developed by Microchip Technology Inc. and its subsidiaries ("Microch
      +                          ip").
    44                           ; 
    45                           ; Redistribution and use in source and binary forms, with or without modification, are
    46                           ; permitted provided that the following conditions are met:
    47                           ; 
    48                           ;     1. Redistributions of source code must retain the above copyright notice, this lis
      +                          t of
    49                           ;        conditions and the following disclaimer.
    50                           ; 
    51                           ;     2. Redistributions in binary form must reproduce the above copyright notice, this 
      +                          list
    52                           ;        of conditions and the following disclaimer in the documentation and/or other
    53                           ;        materials provided with the distribution. Publication is not required when
    54                           ;        this file is used in an embedded application.
    55                           ; 
    56                           ;     3. Microchip's name may not be used to endorse or promote products derived from th
      +                          is
    57                           ;        software without specific prior written permission.
    58                           ; 
    59                           ; THIS SOFTWARE IS PROVIDED BY MICROCHIP "AS IS" AND ANY EXPRESS OR IMPLIED WARRANTIES,
    60                           ; INCLUDING, BUT NOT LIMITED TO, THE IMPLIED WARRANTIES OF MERCHANTABILITY AND FITNESS F
      +                          OR
    61                           ; PURPOSE ARE DISCLAIMED.  IN NO EVENT SHALL MICROCHIP BE LIABLE FOR ANY DIRECT, INDIREC
      +                          T,
    62                           ; INCIDENTAL, SPECIAL, EXEMPLARY, OR CONSEQUENTIAL DAMAGES (INCLUDING BUT NOT LIMITED TO
    63                           ; PROCUREMENT OF SUBSTITUTE GOODS OR SERVICES; LOSS OF USE, DATA OR PROFITS; OR BUSINESS
    64                           ; INTERRUPTION) HOWSOEVER CAUSED AND ON ANY THEORY OF LIABILITY, WHETHER IN CONTRACT, ST
      +                          RICT
    65                           ; LIABILITY, OR TORT (INCLUDING NEGLIGENCE OR OTHERWISE) ARISING IN ANY WAY OUT OF THE U
      +                          SE OF
    66                           ; THIS SOFTWARE, EVEN IF ADVISED OF THE POSSIBILITY OF SUCH DAMAGE.
    67                           ; 
    68                           ; 
    69                           ; Code-generator required, PIC18F45K50 Definitions
    70                           ; 
    71                           ; SFR Addresses
    72   000000                     
    73                           	psect	idataBANK0
    74   0069EE                     __pidataBANK0:
    75                           	callstack 0
    76                           
    77                           ;initializer for _Keypad4x4
    78   0069EE  31                 	db	49
    79   0069EF  32                 	db	50
    80   0069F0  33                 	db	51
    81   0069F1  41                 	db	65
    82   0069F2  34                 	db	52
    83   0069F3  35                 	db	53
    84   0069F4  36                 	db	54
    85   0069F5  42                 	db	66
    86   0069F6  37                 	db	55
    87   0069F7  38                 	db	56
    88   0069F8  39                 	db	57
    89   0069F9  43                 	db	67
    90   0069FA  2A                 	db	42
    91   0069FB  30                 	db	48
    92   0069FC  23                 	db	35
    93   0069FD  44                 	db	68
    94   000000                     _RCREG1	set	4014
    95   000000                     _TXREG1	set	4013
    96   000000                     _SPBRG1	set	4015
    97   000000                     _BAUDCON1	set	4024
    98   000000                     _TRISCbits	set	3988
    99   000000                     _TRISD	set	3989
   100   000000                     _SSP1CON2bits	set	4037
   101   000000                     _SSP1CON1bits	set	4038
   102   000000                     _SSP1STATbits	set	4039
   103   000000                     _OSCCONbits	set	4051
   104   000000                     _ADRESL	set	4035
   105   000000                     _ADRESH	set	4036
   106   000000                     _ADCON0bits	set	4034
   107   000000                     _LATBbits	set	3978
   108   000000                     _PORTBbits	set	3969
   109   000000                     _RCSTA1bits	set	4011
   110   000000                     _TXSTA1bits	set	4012
   111   000000                     _SSP1CON1	set	4038
   112   000000                     _SSP1STAT	set	4039
   113   000000                     _TRISB	set	3987
   114   000000                     _SSPCON2bits	set	4037
   115   000000                     _ANSELBbits	set	3932
   116   000000                     _TRISBbits	set	3987
   117   000000                     _ADCON2bits	set	4032
   118   000000                     _ADCON1bits	set	4033
   119   000000                     _INTCON2bits	set	4081
   120   000000                     _ANSELEbits	set	3935
   121   000000                     _ANSELD	set	3934
   122   000000                     _ANSELCbits	set	3933
   123   000000                     _PORTB	set	3969
   124   000000                     _LATB	set	3978
   125   000000                     _SSP1BUF	set	4041
   126   000000                     _SSP1ADD	set	4040
   127   000000                     _LATD	set	3980
   128   000000                     _PORTD	set	3971
   129   000000                     _LATEbits	set	3981
   130   000000                     _WPUB	set	3973
   131   000000                     _TRISEbits	set	3990
   132   000000                     _PIE1bits	set	3997
   133   000000                     _PIR1bits	set	3998
   134   000000                     _RCSTA1	set	4011
   135   000000                     _TXSTA1	set	4012
   136   000000                     _SPBRGH1	set	4016
   137                           
   138                           	psect	mediumconst
   139   007EC2                     __pmediumconst:
   140                           	callstack 0
   141   007EC2  00                 	db	0
   142   007EC3                     STR_18:
   143   007EC3  50                 	db	80	;'P'
   144   007EC4  72                 	db	114	;'r'
   145   007EC5  6F                 	db	111	;'o'
   146   007EC6  62                 	db	98	;'b'
   147   007EC7  61                 	db	97	;'a'
   148   007EC8  6E                 	db	110	;'n'
   149   007EC9  64                 	db	100	;'d'
   150   007ECA  6F                 	db	111	;'o'
   151   007ECB  20                 	db	32
   152   007ECC  6C                 	db	108	;'l'
   153   007ECD  65                 	db	101	;'e'
   154   007ECE  64                 	db	100	;'d'
   155   007ECF  73                 	db	115	;'s'
   156   007ED0  2E                 	db	46
   157   007ED1  2E                 	db	46
   158   007ED2  2E                 	db	46
   159   007ED3  00                 	db	0
   160   007ED4                     STR_7:
   161   007ED4  42                 	db	66	;'B'
   162   007ED5  54                 	db	84	;'T'
   163   007ED6  31                 	db	49	;'1'
   164   007ED7  3A                 	db	58	;':'
   165   007ED8  20                 	db	32
   166   007ED9  5F                 	db	95	;'_'
   167   007EDA  20                 	db	32
   168   007EDB  7C                 	db	124
   169   007EDC  7C                 	db	124
   170   007EDD  20                 	db	32
   171   007EDE  42                 	db	66	;'B'
   172   007EDF  54                 	db	84	;'T'
   173   007EE0  32                 	db	50	;'2'
   174   007EE1  3A                 	db	58	;':'
   175   007EE2  20                 	db	32
   176   007EE3  5F                 	db	95	;'_'
   177   007EE4  00                 	db	0
   178   007EE5                     STR_25:
   179   007EE5  49                 	db	73	;'I'
   180   007EE6  6E                 	db	110	;'n'
   181   007EE7  69                 	db	105	;'i'
   182   007EE8  74                 	db	116	;'t'
   183   007EE9  20                 	db	32
   184   007EEA  74                 	db	116	;'t'
   185   007EEB  65                 	db	101	;'e'
   186   007EEC  73                 	db	115	;'s'
   187   007EED  74                 	db	116	;'t'
   188   007EEE  20                 	db	32
   189   007EEF  42                 	db	66	;'B'
   190   007EF0  75                 	db	117	;'u'
   191   007EF1  7A                 	db	122	;'z'
   192   007EF2  7A                 	db	122	;'z'
   193   007EF3  65                 	db	101	;'e'
   194   007EF4  72                 	db	114	;'r'
   195   007EF5  00                 	db	0
   196   007EF6                     STR_21:
   197   007EF6  4C                 	db	76	;'L'
   198   007EF7  65                 	db	101	;'e'
   199   007EF8  64                 	db	100	;'d'
   200   007EF9  73                 	db	115	;'s'
   201   007EFA  20                 	db	32
   202   007EFB  69                 	db	105	;'i'
   203   007EFC  6E                 	db	110	;'n'
   204   007EFD  63                 	db	99	;'c'
   205   007EFE  6F                 	db	111	;'o'
   206   007EFF  72                 	db	114	;'r'
   207   007F00  72                 	db	114	;'r'
   208   007F01  65                 	db	101	;'e'
   209   007F02  63                 	db	99	;'c'
   210   007F03  74                 	db	116	;'t'
   211   007F04  6F                 	db	111	;'o'
   212   007F05  73                 	db	115	;'s'
   213   007F06  00                 	db	0
   214   007F07                     STR_20:
   215   007F07  49                 	db	73	;'I'
   216   007F08  6E                 	db	110	;'n'
   217   007F09  69                 	db	105	;'i'
   218   007F0A  74                 	db	116	;'t'
   219   007F0B  20                 	db	32
   220   007F0C  74                 	db	116	;'t'
   221   007F0D  65                 	db	101	;'e'
   222   007F0E  73                 	db	115	;'s'
   223   007F0F  74                 	db	116	;'t'
   224   007F10  20                 	db	32
   225   007F11  52                 	db	82	;'R'
   226   007F12  65                 	db	101	;'e'
   227   007F13  6C                 	db	108	;'l'
   228   007F14  61                 	db	97	;'a'
   229   007F15  79                 	db	121	;'y'
   230   007F16  73                 	db	115	;'s'
   231   007F17  00                 	db	0
   232   007F18                     STR_23:
   233   007F18  52                 	db	82	;'R'
   234   007F19  65                 	db	101	;'e'
   235   007F1A  6C                 	db	108	;'l'
   236   007F1B  61                 	db	97	;'a'
   237   007F1C  79                 	db	121	;'y'
   238   007F1D  73                 	db	115	;'s'
   239   007F1E  20                 	db	32
   240   007F1F  66                 	db	102	;'f'
   241   007F20  75                 	db	117	;'u'
   242   007F21  6E                 	db	110	;'n'
   243   007F22  63                 	db	99	;'c'
   244   007F23  3F                 	db	63	;'?'
   245   007F24  2E                 	db	46
   246   007F25  2E                 	db	46
   247   007F26  2E                 	db	46
   248   007F27  00                 	db	0
   249   007F28  6F                 	db	111	;'o'
   250   007F29  6B                 	db	107	;'k'
   251   007F2A  20                 	db	32
   252   007F2B  20                 	db	32
   253   007F2C  42                 	db	66	;'B'
   254   007F2D  54                 	db	84	;'T'
   255   007F2E  4E                 	db	78	;'N'
   256   007F2F  31                 	db	49	;'1'
   257   007F30  20                 	db	32
   258   007F31  3A                 	db	58	;':'
   259   007F32  20                 	db	32
   260   007F33  42                 	db	66	;'B'
   261   007F34  54                 	db	84	;'T'
   262   007F35  4E                 	db	78	;'N'
   263   007F36  32                 	db	50	;'2'
   264   007F37  00                 	db	0
   265   007F38                     STR_34:
   266   007F38  54                 	db	84	;'T'
   267   007F39  65                 	db	101	;'e'
   268   007F3A  73                 	db	115	;'s'
   269   007F3B  74                 	db	116	;'t'
   270   007F3C  20                 	db	32
   271   007F3D  63                 	db	99	;'c'
   272   007F3E  6F                 	db	111	;'o'
   273   007F3F  6D                 	db	109	;'m'
   274   007F40  70                 	db	112	;'p'
   275   007F41  6C                 	db	108	;'l'
   276   007F42  65                 	db	101	;'e'
   277   007F43  74                 	db	116	;'t'
   278   007F44  61                 	db	97	;'a'
   279   007F45  64                 	db	100	;'d'
   280   007F46  6F                 	db	111	;'o'
   281   007F47  00                 	db	0
   282   007F48                     STR_17:
   283   007F48  49                 	db	73	;'I'
   284   007F49  6E                 	db	110	;'n'
   285   007F4A  69                 	db	105	;'i'
   286   007F4B  74                 	db	116	;'t'
   287   007F4C  20                 	db	32
   288   007F4D  74                 	db	116	;'t'
   289   007F4E  65                 	db	101	;'e'
   290   007F4F  73                 	db	115	;'s'
   291   007F50  74                 	db	116	;'t'
   292   007F51  20                 	db	32
   293   007F52  6C                 	db	108	;'l'
   294   007F53  65                 	db	101	;'e'
   295   007F54  64                 	db	100	;'d'
   296   007F55  73                 	db	115	;'s'
   297   007F56  00                 	db	0
   298   007F57                     STR_19:
   299   007F57  4C                 	db	76	;'L'
   300   007F58  65                 	db	101	;'e'
   301   007F59  64                 	db	100	;'d'
   302   007F5A  73                 	db	115	;'s'
   303   007F5B  20                 	db	32
   304   007F5C  63                 	db	99	;'c'
   305   007F5D  6F                 	db	111	;'o'
   306   007F5E  72                 	db	114	;'r'
   307   007F5F  72                 	db	114	;'r'
   308   007F60  65                 	db	101	;'e'
   309   007F61  63                 	db	99	;'c'
   310   007F62  74                 	db	116	;'t'
   311   007F63  6F                 	db	111	;'o'
   312   007F64  73                 	db	115	;'s'
   313   007F65  00                 	db	0
   314   007F66                     STR_16:
   315   007F66  42                 	db	66	;'B'
   316   007F67  6F                 	db	111	;'o'
   317   007F68  74                 	db	116	;'t'
   318   007F69  6F                 	db	111	;'o'
   319   007F6A  6E                 	db	110	;'n'
   320   007F6B  65                 	db	101	;'e'
   321   007F6C  73                 	db	115	;'s'
   322   007F6D  20                 	db	32
   323   007F6E  63                 	db	99	;'c'
   324   007F6F  68                 	db	104	;'h'
   325   007F70  65                 	db	101	;'e'
   326   007F71  63                 	db	99	;'c'
   327   007F72  6B                 	db	107	;'k'
   328   007F73  00                 	db	0
   329   007F74                     STR_1:
   330   007F74  73                 	db	115	;'s'
   331   007F75  74                 	db	116	;'t'
   332   007F76  61                 	db	97	;'a'
   333   007F77  72                 	db	114	;'r'
   334   007F78  74                 	db	116	;'t'
   335   007F79  69                 	db	105	;'i'
   336   007F7A  6E                 	db	110	;'n'
   337   007F7B  67                 	db	103	;'g'
   338   007F7C  20                 	db	32
   339   007F7D  74                 	db	116	;'t'
   340   007F7E  65                 	db	101	;'e'
   341   007F7F  73                 	db	115	;'s'
   342   007F80  74                 	db	116	;'t'
   343   007F81  00                 	db	0
   344   007F82                     STR_29:
   345   007F82  42                 	db	66	;'B'
   346   007F83  75                 	db	117	;'u'
   347   007F84  7A                 	db	122	;'z'
   348   007F85  7A                 	db	122	;'z'
   349   007F86  65                 	db	101	;'e'
   350   007F87  72                 	db	114	;'r'
   351   007F88  20                 	db	32
   352   007F89  62                 	db	98	;'b'
   353   007F8A  69                 	db	105	;'i'
   354   007F8B  65                 	db	101	;'e'
   355   007F8C  6E                 	db	110	;'n'
   356   007F8D  21                 	db	33
   357   007F8E  00                 	db	0
   358   007F8F                     STR_24:
   359   007F8F  52                 	db	82	;'R'
   360   007F90  65                 	db	101	;'e'
   361   007F91  6C                 	db	108	;'l'
   362   007F92  61                 	db	97	;'a'
   363   007F93  79                 	db	121	;'y'
   364   007F94  73                 	db	115	;'s'
   365   007F95  20                 	db	32
   366   007F96  62                 	db	98	;'b'
   367   007F97  69                 	db	105	;'i'
   368   007F98  65                 	db	101	;'e'
   369   007F99  6E                 	db	110	;'n'
   370   007F9A  21                 	db	33
   371   007F9B  00                 	db	0
   372   007F9C                     STR_31:
   373   007F9C  42                 	db	66	;'B'
   374   007F9D  75                 	db	117	;'u'
   375   007F9E  7A                 	db	122	;'z'
   376   007F9F  7A                 	db	122	;'z'
   377   007FA0  65                 	db	101	;'e'
   378   007FA1  72                 	db	114	;'r'
   379   007FA2  20                 	db	32
   380   007FA3  6D                 	db	109	;'m'
   381   007FA4  61                 	db	97	;'a'
   382   007FA5  6C                 	db	108	;'l'
   383   007FA6  21                 	db	33
   384   007FA7  00                 	db	0
   385   007FA8                     STR_26:
   386   007FA8  52                 	db	82	;'R'
   387   007FA9  65                 	db	101	;'e'
   388   007FAA  6C                 	db	108	;'l'
   389   007FAB  61                 	db	97	;'a'
   390   007FAC  79                 	db	121	;'y'
   391   007FAD  73                 	db	115	;'s'
   392   007FAE  20                 	db	32
   393   007FAF  6D                 	db	109	;'m'
   394   007FB0  61                 	db	97	;'a'
   395   007FB1  6C                 	db	108	;'l'
   396   007FB2  21                 	db	33
   397   007FB3  00                 	db	0
   398   007FB4                     STR_33:
   399   007FB4  46                 	db	70	;'F'
   400   007FB5  65                 	db	101	;'e'
   401   007FB6  6C                 	db	108	;'l'
   402   007FB7  69                 	db	105	;'i'
   403   007FB8  63                 	db	99	;'c'
   404   007FB9  69                 	db	105	;'i'
   405   007FBA  64                 	db	100	;'d'
   406   007FBB  61                 	db	97	;'a'
   407   007FBC  64                 	db	100	;'d'
   408   007FBD  65                 	db	101	;'e'
   409   007FBE  73                 	db	115	;'s'
   410   007FBF  00                 	db	0
   411   007FC0                     STR_2:
   412   007FC0  6F                 	db	111	;'o'
   413   007FC1  66                 	db	102	;'f'
   414   007FC2  20                 	db	32
   415   007FC3  74                 	db	116	;'t'
   416   007FC4  72                 	db	114	;'r'
   417   007FC5  61                 	db	97	;'a'
   418   007FC6  69                 	db	105	;'i'
   419   007FC7  6E                 	db	110	;'n'
   420   007FC8  65                 	db	101	;'e'
   421   007FC9  72                 	db	114	;'r'
   422   007FCA  00                 	db	0
   423   007FCB                     STR_10:
   424   007FCB  42                 	db	66	;'B'
   425   007FCC  54                 	db	84	;'T'
   426   007FCD  4E                 	db	78	;'N'
   427   007FCE  31                 	db	49	;'1'
   428   007FCF  3A                 	db	58	;':'
   429   007FD0  20                 	db	32
   430   007FD1  3A                 	db	58	;':'
   431   007FD2  29                 	db	41
   432   007FD3  00                 	db	0
   433   007FD4                     STR_13:
   434   007FD4  42                 	db	66	;'B'
   435   007FD5  54                 	db	84	;'T'
   436   007FD6  6E                 	db	110	;'n'
   437   007FD7  32                 	db	50	;'2'
   438   007FD8  3A                 	db	58	;':'
   439   007FD9  20                 	db	32
   440   007FDA  3A                 	db	58	;':'
   441   007FDB  29                 	db	41
   442   007FDC  00                 	db	0
   443   007FDD                     STR_8:
   444   007FDD  42                 	db	66	;'B'
   445   007FDE  54                 	db	84	;'T'
   446   007FDF  4E                 	db	78	;'N'
   447   007FE0  31                 	db	49	;'1'
   448   007FE1  3A                 	db	58	;':'
   449   007FE2  20                 	db	32
   450   007FE3  5F                 	db	95	;'_'
   451   007FE4  00                 	db	0
   452   007FE5                     STR_9:
   453   007FE5  42                 	db	66	;'B'
   454   007FE6  54                 	db	84	;'T'
   455   007FE7  6E                 	db	110	;'n'
   456   007FE8  32                 	db	50	;'2'
   457   007FE9  3A                 	db	58	;':'
   458   007FEA  20                 	db	32
   459   007FEB  5F                 	db	95	;'_'
   460   007FEC  00                 	db	0
   461   007FED                     STR_3:
   462   007FED  49                 	db	73	;'I'
   463   007FEE  6E                 	db	110	;'n'
   464   007FEF  20                 	db	32
   465   007FF0  2E                 	db	46
   466   007FF1  2E                 	db	46
   467   007FF2  2E                 	db	46
   468   007FF3  00                 	db	0
   469   007FF4                     STR_6:
   470   007FF4  42                 	db	66	;'B'
   471   007FF5  54                 	db	84	;'T'
   472   007FF6  30                 	db	48	;'0'
   473   007FF7  20                 	db	32
   474   007FF8  6F                 	db	111	;'o'
   475   007FF9  6B                 	db	107	;'k'
   476   007FFA  00                 	db	0
   477   007FFB                     STR_5:
   478   007FFB  25                 	db	37
   479   007FFC  64                 	db	100	;'d'
   480   007FFD  00                 	db	0
   481   007FFE  00                 	db	0	; dummy byte at the end
   482   000000                     
   483                           ; #config settings
   484                           
   485                           	psect	cinit
   486   006A6E                     __pcinit:
   487                           	callstack 0
   488   006A6E                     start_initialization:
   489                           	callstack 0
   490   006A6E                     __initialization:
   491                           	callstack 0
   492                           
   493                           ; Initialize objects allocated to BANK0 (16 bytes)
   494                           ; load TBLPTR registers with __pidataBANK0
   495   006A6E  0EEE               	movlw	low __pidataBANK0
   496   006A70  6EF6               	movwf	tblptrl,c
   497   006A72  0E69               	movlw	high __pidataBANK0
   498   006A74  6EF7               	movwf	tblptrh,c
   499   006A76  0E00               	movlw	low (__pidataBANK0 shr (0+16))
   500   006A78  6EF8               	movwf	tblptru,c
   501   006A7A  EE00  F0B4         	lfsr	0,__pdataBANK0
   502   006A7E  EE10 F010          	lfsr	1,16
   503   006A82                     copy_data0:
   504   006A82  0009               	tblrd		*+
   505   006A84  CFF5 FFEE          	movff	tablat,postinc0
   506   006A88  50E5               	movf	postdec1,w,c
   507   006A8A  50E1               	movf	fsr1l,w,c
   508   006A8C  E1FA               	bnz	copy_data0
   509                           
   510                           ; Clear objects allocated to BANK0 (41 bytes)
   511   006A8E  EE00  F08B         	lfsr	0,__pbssBANK0
   512   006A92  0E29               	movlw	41
   513   006A94                     clear_0:
   514   006A94  6AEE               	clrf	postinc0,c
   515   006A96  06E8               	decf	wreg,f,c
   516   006A98  E1FD               	bnz	clear_0
   517   006A9A                     end_of_initialization:
   518                           	callstack 0
   519   006A9A                     __end_of__initialization:
   520                           	callstack 0
   521   006A9A  0E00               	movlw	low (__Lmediumconst shr (0+16))
   522   006A9C  6EF8               	movwf	tblptru,c
   523   006A9E  0100               	movlb	0
   524   006AA0  EFD9  F03A         	goto	_main	;jump to C main() function
   525                           
   526                           	psect	bssBANK0
   527   00008B                     __pbssBANK0:
   528                           	callstack 0
   529   00008B                     _width:
   530                           	callstack 0
   531   00008B                     	ds	2
   532   00008D                     _prec:
   533                           	callstack 0
   534   00008D                     	ds	2
   535   00008F                     _flags:
   536                           	callstack 0
   537   00008F                     	ds	1
   538   000090                     _two_buttons_pushed:
   539                           	callstack 0
   540   000090                     	ds	1
   541   000091                     _btn2_pushed:
   542                           	callstack 0
   543   000091                     	ds	1
   544   000092                     _btn1_pushed:
   545                           	callstack 0
   546   000092                     	ds	1
   547   000093                     _ESTADO_APP:
   548                           	callstack 0
   549   000093                     	ds	1
   550   000094                     _dbuf:
   551                           	callstack 0
   552   000094                     	ds	32
   553                           
   554                           	psect	dataBANK0
   555   0000B4                     __pdataBANK0:
   556                           	callstack 0
   557   0000B4                     _Keypad4x4:
   558                           	callstack 0
   559   0000B4                     	ds	16
   560                           
   561                           	psect	cstackBANK0
   562   000060                     __pcstackBANK0:
   563                           	callstack 0
   564   000060                     sprintf@ap:
   565                           	callstack 0
   566                           
   567                           ; 2 bytes @ 0x0
   568   000060                     	ds	2
   569   000062                     sprintf@f:
   570                           	callstack 0
   571                           
   572                           ; 11 bytes @ 0x2
   573   000062                     	ds	11
   574   00006D                     ??_main:
   575                           
   576                           ; 1 bytes @ 0xD
   577   00006D                     	ds	2
   578   00006F                     main@strI:
   579                           	callstack 0
   580                           
   581                           ; 20 bytes @ 0xF
   582   00006F                     	ds	20
   583   000083                     main@i:
   584                           	callstack 0
   585                           
   586                           ; 2 bytes @ 0x23
   587   000083                     	ds	2
   588   000085                     main@j:
   589                           	callstack 0
   590                           
   591                           ; 2 bytes @ 0x25
   592   000085                     	ds	2
   593   000087                     main@i_1471:
   594                           	callstack 0
   595                           
   596                           ; 2 bytes @ 0x27
   597   000087                     	ds	2
   598   000089                     main@i_1472:
   599                           	callstack 0
   600                           
   601                           ; 2 bytes @ 0x29
   602   000089                     	ds	2
   603                           
   604                           	psect	cstackCOMRAM
   605   000001                     __pcstackCOMRAM:
   606                           	callstack 0
   607   000001                     ?___aodiv:
   608                           	callstack 0
   609   000001                     ?___aomod:
   610                           	callstack 0
   611   000001                     Lcd_Port@a:
   612                           	callstack 0
   613   000001                     putch@c:
   614                           	callstack 0
   615   000001                     ___aodiv@dividend:
   616                           	callstack 0
   617   000001                     ___aomod@dividend:
   618                           	callstack 0
   619                           
   620                           ; 8 bytes @ 0x0
   621   000001                     	ds	1
   622   000002                     ??_Lcd_Cmd:
   623   000002                     Lcd_Write_Char@temp:
   624                           	callstack 0
   625   000002                     fputc@c:
   626                           	callstack 0
   627                           
   628                           ; 2 bytes @ 0x1
   629   000002                     	ds	1
   630   000003                     Lcd_Cmd@a:
   631                           	callstack 0
   632   000003                     Lcd_Write_Char@y:
   633                           	callstack 0
   634                           
   635                           ; 1 bytes @ 0x2
   636   000003                     	ds	1
   637   000004                     ??_Lcd_Init:
   638   000004                     Lcd_Set_Cursor@b:
   639                           	callstack 0
   640   000004                     Lcd_Write_Char@a:
   641                           	callstack 0
   642   000004                     fputc@fp:
   643                           	callstack 0
   644                           
   645                           ; 2 bytes @ 0x3
   646   000004                     	ds	1
   647   000005                     Lcd_Set_Cursor@a:
   648                           	callstack 0
   649   000005                     Lcd_Write_String@a:
   650                           	callstack 0
   651                           
   652                           ; 2 bytes @ 0x4
   653   000005                     	ds	1
   654   000006                     ??_fputc:
   655   000006                     Lcd_Set_Cursor@z:
   656                           	callstack 0
   657                           
   658                           ; 1 bytes @ 0x5
   659   000006                     	ds	1
   660   000007                     ??_Lcd_Write_String:
   661   000007                     Lcd_Set_Cursor@y:
   662                           	callstack 0
   663                           
   664                           ; 1 bytes @ 0x6
   665   000007                     	ds	1
   666   000008                     Lcd_Set_Cursor@temp:
   667                           	callstack 0
   668                           
   669                           ; 1 bytes @ 0x7
   670   000008                     	ds	1
   671   000009                     Lcd_Write_String@i:
   672                           	callstack 0
   673   000009                     ___aodiv@divisor:
   674                           	callstack 0
   675   000009                     ___aomod@divisor:
   676                           	callstack 0
   677                           
   678                           ; 8 bytes @ 0x8
   679   000009                     	ds	2
   680   00000B                     fputs@s:
   681                           	callstack 0
   682                           
   683                           ; 2 bytes @ 0xA
   684   00000B                     	ds	2
   685   00000D                     fputs@fp:
   686                           	callstack 0
   687                           
   688                           ; 2 bytes @ 0xC
   689   00000D                     	ds	2
   690   00000F                     fputs@c:
   691                           	callstack 0
   692                           
   693                           ; 1 bytes @ 0xE
   694   00000F                     	ds	1
   695   000010                     fputs@i:
   696                           	callstack 0
   697                           
   698                           ; 2 bytes @ 0xF
   699   000010                     	ds	1
   700   000011                     ___aodiv@counter:
   701                           	callstack 0
   702   000011                     ___aomod@counter:
   703                           	callstack 0
   704                           
   705                           ; 1 bytes @ 0x10
   706   000011                     	ds	1
   707   000012                     ___aodiv@sign:
   708                           	callstack 0
   709   000012                     ___aomod@sign:
   710                           	callstack 0
   711   000012                     pad@fp:
   712                           	callstack 0
   713                           
   714                           ; 2 bytes @ 0x11
   715   000012                     	ds	1
   716   000013                     ?_abs:
   717                           	callstack 0
   718   000013                     abs@a:
   719                           	callstack 0
   720   000013                     ___aodiv@quotient:
   721                           	callstack 0
   722                           
   723                           ; 8 bytes @ 0x12
   724   000013                     	ds	1
   725   000014                     pad@buf:
   726                           	callstack 0
   727                           
   728                           ; 2 bytes @ 0x13
   729   000014                     	ds	1
   730   000015                     ??_abs:
   731                           
   732                           ; 1 bytes @ 0x14
   733   000015                     	ds	1
   734   000016                     pad@p:
   735                           	callstack 0
   736                           
   737                           ; 2 bytes @ 0x15
   738   000016                     	ds	2
   739   000018                     ??_pad:
   740                           
   741                           ; 1 bytes @ 0x17
   742   000018                     	ds	1
   743   000019                     pad@i:
   744                           	callstack 0
   745                           
   746                           ; 2 bytes @ 0x18
   747   000019                     	ds	2
   748   00001B                     pad@w:
   749                           	callstack 0
   750                           
   751                           ; 2 bytes @ 0x1A
   752   00001B                     	ds	2
   753   00001D                     dtoa@fp:
   754                           	callstack 0
   755                           
   756                           ; 2 bytes @ 0x1C
   757   00001D                     	ds	2
   758   00001F                     dtoa@d:
   759                           	callstack 0
   760                           
   761                           ; 8 bytes @ 0x1E
   762   00001F                     	ds	8
   763   000027                     ??_dtoa:
   764                           
   765                           ; 1 bytes @ 0x26
   766   000027                     	ds	8
   767   00002F                     _dtoa$2030:
   768                           	callstack 0
   769                           
   770                           ; 2 bytes @ 0x2E
   771   00002F                     	ds	2
   772   000031                     dtoa@p:
   773                           	callstack 0
   774                           
   775                           ; 2 bytes @ 0x30
   776   000031                     	ds	2
   777   000033                     dtoa@w:
   778                           	callstack 0
   779                           
   780                           ; 2 bytes @ 0x32
   781   000033                     	ds	2
   782   000035                     dtoa@n:
   783                           	callstack 0
   784                           
   785                           ; 8 bytes @ 0x34
   786   000035                     	ds	8
   787   00003D                     dtoa@i:
   788                           	callstack 0
   789                           
   790                           ; 2 bytes @ 0x3C
   791   00003D                     	ds	2
   792   00003F                     dtoa@s:
   793                           	callstack 0
   794                           
   795                           ; 1 bytes @ 0x3E
   796   00003F                     	ds	1
   797   000040                     vfpfcnvrt@fp:
   798                           	callstack 0
   799                           
   800                           ; 2 bytes @ 0x3F
   801   000040                     	ds	2
   802   000042                     vfpfcnvrt@fmt:
   803                           	callstack 0
   804                           
   805                           ; 2 bytes @ 0x41
   806   000042                     	ds	2
   807   000044                     vfpfcnvrt@ap:
   808                           	callstack 0
   809                           
   810                           ; 2 bytes @ 0x43
   811   000044                     	ds	2
   812   000046                     ??_vfpfcnvrt:
   813                           
   814                           ; 1 bytes @ 0x45
   815   000046                     	ds	2
   816   000048                     vfpfcnvrt@convarg:
   817                           	callstack 0
   818                           
   819                           ; 8 bytes @ 0x47
   820   000048                     	ds	8
   821   000050                     vfpfcnvrt@cp:
   822                           	callstack 0
   823                           
   824                           ; 2 bytes @ 0x4F
   825   000050                     	ds	2
   826   000052                     ?_vfprintf:
   827                           	callstack 0
   828   000052                     vfprintf@fp:
   829                           	callstack 0
   830                           
   831                           ; 2 bytes @ 0x51
   832   000052                     	ds	2
   833   000054                     vfprintf@fmt:
   834                           	callstack 0
   835                           
   836                           ; 2 bytes @ 0x53
   837   000054                     	ds	2
   838   000056                     vfprintf@ap:
   839                           	callstack 0
   840                           
   841                           ; 2 bytes @ 0x55
   842   000056                     	ds	2
   843   000058                     vfprintf@cfmt:
   844                           	callstack 0
   845                           
   846                           ; 2 bytes @ 0x57
   847   000058                     	ds	2
   848   00005A                     ?_sprintf:
   849                           	callstack 0
   850   00005A                     sprintf@s:
   851                           	callstack 0
   852                           
   853                           ; 2 bytes @ 0x59
   854   00005A                     	ds	2
   855   00005C                     sprintf@fmt:
   856                           	callstack 0
   857                           
   858                           ; 2 bytes @ 0x5B
   859   00005C                     	ds	4
   860   000060                     
   861                           ; 1 bytes @ 0x5F
   862 ;;
   863 ;;Main: autosize = 0, tempsize = 2, incstack = 0, save=0
   864 ;;
   865 ;; *************** function _main *****************
   866 ;; Defined at:
   867 ;;		line 29 in file "LibreriasPIC/main_v2.c"
   868 ;; Parameters:    Size  Location     Type
   869 ;;		None
   870 ;; Auto vars:     Size  Location     Type
   871 ;;  j               2   37[BANK0 ] int 
   872 ;;  i               2   41[BANK0 ] int 
   873 ;;  i               2   39[BANK0 ] int 
   874 ;;  strI           20   15[BANK0 ] unsigned char [20]
   875 ;;  i               2   35[BANK0 ] int 
   876 ;; Return value:  Size  Location     Type
   877 ;;                  2  412[None  ] int 
   878 ;; Registers used:
   879 ;;		wreg, fsr0l, fsr0h, fsr1l, fsr1h, fsr2l, fsr2h, status,2, status,0, tblptrl, tblptrh, tblptru, cstack
   880 ;; Tracked objects:
   881 ;;		On entry : 0/0
   882 ;;		On exit  : 0/0
   883 ;;		Unchanged: 0/0
   884 ;; Data sizes:     COMRAM   BANK0   BANK1   BANK2   BANK3   BANK4   BANK5   BANK6   BANK7
   885 ;;      Params:         0       0       0       0       0       0       0       0       0
   886 ;;      Locals:         0      28       0       0       0       0       0       0       0
   887 ;;      Temps:          0       2       0       0       0       0       0       0       0
   888 ;;      Totals:         0      30       0       0       0       0       0       0       0
   889 ;;Total ram usage:       30 bytes
   890 ;; Hardware stack levels required when called: 8
   891 ;; This function calls:
   892 ;;		_Lcd_Clear
   893 ;;		_Lcd_Init
   894 ;;		_Lcd_Set_Cursor
   895 ;;		_Lcd_Write_String
   896 ;;		_OSCILADOR_Init
   897 ;;		_Port_Init
   898 ;;		_sprintf
   899 ;; This function is called by:
   900 ;;		Startup code after reset
   901 ;; This function uses a non-reentrant model
   902 ;;
   903                           
   904                           	psect	text0
   905   0075B2                     __ptext0:
   906                           	callstack 0
   907   0075B2                     _main:
   908                           	callstack 23
   909   0075B2                     
   910                           ;LibreriasPIC/main_v2.c: 31:     OSCILADOR_Init();
   911   0075B2  ECFF  F034         	call	_OSCILADOR_Init	;wreg free
   912                           
   913                           ;LibreriasPIC/main_v2.c: 32:     Port_Init();
   914   0075B6  EC23  F035         	call	_Port_Init	;wreg free
   915   0075BA                     
   916                           ;LibreriasPIC/main_v2.c: 33:     Lcd_Init();
   917   0075BA  EC61  F036         	call	_Lcd_Init	;wreg free
   918   0075BE                     
   919                           ;LibreriasPIC/main_v2.c: 34:     Lcd_Clear();
   920   0075BE  ECF0  F034         	call	_Lcd_Clear	;wreg free
   921   0075C2                     
   922                           ;LibreriasPIC/main_v2.c: 37:     ESTADO_APP = 1;
   923   0075C2  0E01               	movlw	1
   924   0075C4  0100               	movlb	0	; () banked
   925   0075C6  6F93               	movwf	_ESTADO_APP& (0+255),b
   926   0075C8  EF39  F03F         	goto	l2962
   927   0075CC                     l2702:
   928                           
   929                           ; BSR set to: 0
   930                           ;LibreriasPIC/main_v2.c: 44:                 Lcd_Clear();
   931   0075CC  ECF0  F034         	call	_Lcd_Clear	;wreg free
   932                           
   933                           ;LibreriasPIC/main_v2.c: 45:                 Lcd_Set_Cursor(1, 1);
   934   0075D0  0E01               	movlw	1
   935   0075D2  6E04               	movwf	Lcd_Set_Cursor@b^0,c
   936   0075D4  0E01               	movlw	1
   937   0075D6  EC2E  F036         	call	_Lcd_Set_Cursor
   938   0075DA                     
   939                           ;LibreriasPIC/main_v2.c: 46:                 Lcd_Write_String("starting test");
   940   0075DA  0E74               	movlw	low STR_1
   941   0075DC  6E05               	movwf	Lcd_Write_String@a^0,c
   942   0075DE  0E7F               	movlw	high STR_1
   943   0075E0  6E06               	movwf	(Lcd_Write_String@a+1)^0,c
   944   0075E2  ECDA  F036         	call	_Lcd_Write_String	;wreg free
   945   0075E6                     
   946                           ;LibreriasPIC/main_v2.c: 47:                 Lcd_Set_Cursor(2, 1);
   947   0075E6  0E01               	movlw	1
   948   0075E8  6E04               	movwf	Lcd_Set_Cursor@b^0,c
   949   0075EA  0E02               	movlw	2
   950   0075EC  EC2E  F036         	call	_Lcd_Set_Cursor
   951                           
   952                           ;LibreriasPIC/main_v2.c: 48:                 Lcd_Write_String("of trainer");
   953   0075F0  0EC0               	movlw	low STR_2
   954   0075F2  6E05               	movwf	Lcd_Write_String@a^0,c
   955   0075F4  0E7F               	movlw	high STR_2
   956   0075F6  6E06               	movwf	(Lcd_Write_String@a+1)^0,c
   957   0075F8  ECDA  F036         	call	_Lcd_Write_String	;wreg free
   958   0075FC                     
   959                           ;LibreriasPIC/main_v2.c: 49:                 _delay((unsigned long)((1500)*(8000000UL/40
      +                          00.0)));
   960   0075FC  0E10               	movlw	16
   961   0075FE  0100               	movlb	0	; () banked
   962   007600  6F6E               	movwf	(??_main+1)& (0+255),b
   963   007602  0E39               	movlw	57
   964   007604  6F6D               	movwf	??_main& (0+255),b
   965   007606  0E0D               	movlw	13
   966   007608                     u2167:
   967   007608  2EE8               	decfsz	wreg,f,c
   968   00760A  D7FE               	bra	u2167
   969   00760C  2F6D               	decfsz	??_main& (0+255),f,b
   970   00760E  D7FC               	bra	u2167
   971   007610  2F6E               	decfsz	(??_main+1)& (0+255),f,b
   972   007612  D7FA               	bra	u2167
   973   007614  D000               	nop2	
   974   007616                     
   975                           ;LibreriasPIC/main_v2.c: 50:                 Lcd_Clear();
   976   007616  ECF0  F034         	call	_Lcd_Clear	;wreg free
   977   00761A                     
   978                           ;LibreriasPIC/main_v2.c: 51:                 Lcd_Set_Cursor(1, 1);
   979   00761A  0E01               	movlw	1
   980   00761C  6E04               	movwf	Lcd_Set_Cursor@b^0,c
   981   00761E  0E01               	movlw	1
   982   007620  EC2E  F036         	call	_Lcd_Set_Cursor
   983   007624                     
   984                           ;LibreriasPIC/main_v2.c: 52:                 Lcd_Write_String("In ...");
   985   007624  0EED               	movlw	low STR_3
   986   007626  6E05               	movwf	Lcd_Write_String@a^0,c
   987   007628  0E7F               	movlw	high STR_3
   988   00762A  6E06               	movwf	(Lcd_Write_String@a+1)^0,c
   989   00762C  ECDA  F036         	call	_Lcd_Write_String	;wreg free
   990   007630                     
   991                           ;LibreriasPIC/main_v2.c: 55:                 for ( int i = 3; i > 0; i-- ) {
   992   007630  0E00               	movlw	0
   993   007632  0100               	movlb	0	; () banked
   994   007634  6F84               	movwf	(main@i+1)& (0+255),b
   995   007636  0E03               	movlw	3
   996   007638  6F83               	movwf	main@i& (0+255),b
   997   00763A                     l2722:
   998                           
   999                           ; BSR set to: 0
  1000                           ;LibreriasPIC/main_v2.c: 56:                     char strI[20];;LibreriasPIC/main_v2.c: 
      +                          57:                     for ( int j = 1; j < 17; j++ ) {
  1001   00763A  0E00               	movlw	0
  1002   00763C  6F86               	movwf	(main@j+1)& (0+255),b
  1003   00763E  0E01               	movlw	1
  1004   007640  6F85               	movwf	main@j& (0+255),b
  1005   007642                     l2728:
  1006                           
  1007                           ; BSR set to: 0
  1008                           ;LibreriasPIC/main_v2.c: 58:                         Lcd_Set_Cursor(1, 1);
  1009   007642  0E01               	movlw	1
  1010   007644  6E04               	movwf	Lcd_Set_Cursor@b^0,c
  1011   007646  0E01               	movlw	1
  1012   007648  EC2E  F036         	call	_Lcd_Set_Cursor
  1013   00764C                     
  1014                           ;LibreriasPIC/main_v2.c: 59:                         Lcd_Write_String("In ...");
  1015   00764C  0EED               	movlw	low STR_3
  1016   00764E  6E05               	movwf	Lcd_Write_String@a^0,c
  1017   007650  0E7F               	movlw	high STR_3
  1018   007652  6E06               	movwf	(Lcd_Write_String@a+1)^0,c
  1019   007654  ECDA  F036         	call	_Lcd_Write_String	;wreg free
  1020   007658                     
  1021                           ;LibreriasPIC/main_v2.c: 60:                         Lcd_Set_Cursor(2, j);
  1022   007658  C085  F004         	movff	main@j,Lcd_Set_Cursor@b
  1023   00765C  0E02               	movlw	2
  1024   00765E  EC2E  F036         	call	_Lcd_Set_Cursor
  1025   007662                     
  1026                           ;LibreriasPIC/main_v2.c: 61:                         sprintf(strI, "%d", i);
  1027   007662  0E6F               	movlw	low main@strI
  1028   007664  6E5A               	movwf	sprintf@s^0,c
  1029   007666  0E00               	movlw	high main@strI
  1030   007668  6E5B               	movwf	(sprintf@s+1)^0,c
  1031   00766A  0EFB               	movlw	low STR_5
  1032   00766C  6E5C               	movwf	sprintf@fmt^0,c
  1033   00766E  0E7F               	movlw	high STR_5
  1034   007670  6E5D               	movwf	(sprintf@fmt+1)^0,c
  1035   007672  C083  F05E         	movff	main@i,?_sprintf+4
  1036   007676  C084  F05F         	movff	main@i+1,?_sprintf+5
  1037   00767A  ECD7  F035         	call	_sprintf	;wreg free
  1038   00767E                     
  1039                           ;LibreriasPIC/main_v2.c: 62:                         Lcd_Write_String(strI);
  1040   00767E  0E6F               	movlw	low main@strI
  1041   007680  6E05               	movwf	Lcd_Write_String@a^0,c
  1042   007682  0E00               	movlw	high main@strI
  1043   007684  6E06               	movwf	(Lcd_Write_String@a+1)^0,c
  1044   007686  ECDA  F036         	call	_Lcd_Write_String	;wreg free
  1045   00768A                     
  1046                           ;LibreriasPIC/main_v2.c: 63:                         _delay((unsigned long)((200)*(80000
      +                          00UL/4000.0)));
  1047   00768A  0E03               	movlw	3
  1048   00768C  0100               	movlb	0	; () banked
  1049   00768E  6F6E               	movwf	(??_main+1)& (0+255),b
  1050   007690  0E08               	movlw	8
  1051   007692  6F6D               	movwf	??_main& (0+255),b
  1052   007694  0E77               	movlw	119
  1053   007696                     u2177:
  1054   007696  2EE8               	decfsz	wreg,f,c
  1055   007698  D7FE               	bra	u2177
  1056   00769A  2F6D               	decfsz	??_main& (0+255),f,b
  1057   00769C  D7FC               	bra	u2177
  1058   00769E  2F6E               	decfsz	(??_main+1)& (0+255),f,b
  1059   0076A0  D7FA               	bra	u2177
  1060   0076A2                     
  1061                           ;LibreriasPIC/main_v2.c: 64:                         Lcd_Clear();
  1062   0076A2  ECF0  F034         	call	_Lcd_Clear	;wreg free
  1063   0076A6                     
  1064                           ;LibreriasPIC/main_v2.c: 65:                     }
  1065   0076A6  0100               	movlb	0	; () banked
  1066   0076A8  4B85               	infsnz	main@j& (0+255),f,b
  1067   0076AA  2B86               	incf	(main@j+1)& (0+255),f,b
  1068   0076AC                     
  1069                           ; BSR set to: 0
  1070   0076AC  BF86               	btfsc	(main@j+1)& (0+255),7,b
  1071   0076AE  EF62  F03B         	goto	u1781
  1072   0076B2  5186               	movf	(main@j+1)& (0+255),w,b
  1073   0076B4  E109               	bnz	u1780
  1074   0076B6  0E11               	movlw	17
  1075   0076B8  5D85               	subwf	main@j& (0+255),w,b
  1076   0076BA  A0D8               	btfss	status,0,c
  1077   0076BC  EF62  F03B         	goto	u1781
  1078   0076C0  EF64  F03B         	goto	u1780
  1079   0076C4                     u1781:
  1080   0076C4  EF21  F03B         	goto	l2728
  1081   0076C8                     u1780:
  1082   0076C8                     
  1083                           ; BSR set to: 0
  1084                           ;LibreriasPIC/main_v2.c: 66:                 }
  1085   0076C8  0783               	decf	main@i& (0+255),f,b
  1086   0076CA  A0D8               	btfss	status,0,c
  1087   0076CC  0784               	decf	(main@i+1)& (0+255),f,b
  1088   0076CE                     
  1089                           ; BSR set to: 0
  1090   0076CE  BF84               	btfsc	(main@i+1)& (0+255),7,b
  1091   0076D0  EF74  F03B         	goto	u1790
  1092   0076D4  5184               	movf	(main@i+1)& (0+255),w,b
  1093   0076D6  E106               	bnz	u1791
  1094   0076D8  0583               	decf	main@i& (0+255),w,b
  1095   0076DA  B0D8               	btfsc	status,0,c
  1096   0076DC  EF72  F03B         	goto	u1791
  1097   0076E0  EF74  F03B         	goto	u1790
  1098   0076E4                     u1791:
  1099   0076E4  EF1D  F03B         	goto	l2722
  1100   0076E8                     u1790:
  1101   0076E8                     
  1102                           ; BSR set to: 0
  1103                           ;LibreriasPIC/main_v2.c: 68:                 ESTADO_APP = 2;
  1104   0076E8  0E02               	movlw	2
  1105   0076EA  6F93               	movwf	_ESTADO_APP& (0+255),b
  1106                           
  1107                           ;LibreriasPIC/main_v2.c: 70:                 break;
  1108   0076EC  EF39  F03F         	goto	l2962
  1109   0076F0                     l2752:
  1110                           
  1111                           ; BSR set to: 0
  1112                           ;LibreriasPIC/main_v2.c: 76:                 Lcd_Clear();
  1113   0076F0  ECF0  F034         	call	_Lcd_Clear	;wreg free
  1114                           
  1115                           ;LibreriasPIC/main_v2.c: 77:                 Lcd_Set_Cursor(1, 1);
  1116   0076F4  0E01               	movlw	1
  1117   0076F6  6E04               	movwf	Lcd_Set_Cursor@b^0,c
  1118   0076F8  0E01               	movlw	1
  1119   0076FA  EC2E  F036         	call	_Lcd_Set_Cursor
  1120   0076FE                     
  1121                           ;LibreriasPIC/main_v2.c: 78:                 Lcd_Write_String("BT0 ok");
  1122   0076FE  0EF4               	movlw	low STR_6
  1123   007700  6E05               	movwf	Lcd_Write_String@a^0,c
  1124   007702  0E7F               	movlw	high STR_6
  1125   007704  6E06               	movwf	(Lcd_Write_String@a+1)^0,c
  1126   007706  ECDA  F036         	call	_Lcd_Write_String	;wreg free
  1127   00770A                     
  1128                           ;LibreriasPIC/main_v2.c: 79:                 Lcd_Set_Cursor(2, 1);
  1129   00770A  0E01               	movlw	1
  1130   00770C  6E04               	movwf	Lcd_Set_Cursor@b^0,c
  1131   00770E  0E02               	movlw	2
  1132   007710  EC2E  F036         	call	_Lcd_Set_Cursor
  1133                           
  1134                           ;LibreriasPIC/main_v2.c: 80:                 Lcd_Write_String("BT1: _ || BT2: _");
  1135   007714  0ED4               	movlw	low STR_7
  1136   007716  6E05               	movwf	Lcd_Write_String@a^0,c
  1137   007718  0E7E               	movlw	high STR_7
  1138   00771A  6E06               	movwf	(Lcd_Write_String@a+1)^0,c
  1139   00771C  ECDA  F036         	call	_Lcd_Write_String	;wreg free
  1140   007720                     
  1141                           ;LibreriasPIC/main_v2.c: 82:                 if ( PORTBbits.RB1 == 0 ) {
  1142   007720  B281               	btfsc	129,1,c	;volatile
  1143   007722  EF95  F03B         	goto	u1801
  1144   007726  EF97  F03B         	goto	u1800
  1145   00772A                     u1801:
  1146   00772A  EFAA  F03B         	goto	l2764
  1147   00772E                     u1800:
  1148   00772E                     
  1149                           ;LibreriasPIC/main_v2.c: 83:                     _delay((unsigned long)((10)*(8000000UL/
      +                          4000.0)));
  1150   00772E  0E1A               	movlw	26
  1151   007730  0100               	movlb	0	; () banked
  1152   007732  6F6D               	movwf	??_main& (0+255),b
  1153   007734  0EF8               	movlw	248
  1154   007736                     u2187:
  1155   007736  2EE8               	decfsz	wreg,f,c
  1156   007738  D7FE               	bra	u2187
  1157   00773A  2F6D               	decfsz	??_main& (0+255),f,b
  1158   00773C  D7FC               	bra	u2187
  1159   00773E  F000               	nop	
  1160   007740                     l423:
  1161   007740  A281               	btfss	129,1,c	;volatile
  1162   007742  EFA5  F03B         	goto	u1811
  1163   007746  EFA7  F03B         	goto	u1810
  1164   00774A                     u1811:
  1165   00774A  EFA0  F03B         	goto	l423
  1166   00774E                     u1810:
  1167   00774E                     
  1168                           ;LibreriasPIC/main_v2.c: 85:                     btn1_pushed = 1;
  1169   00774E  0E01               	movlw	1
  1170   007750  0100               	movlb	0	; () banked
  1171   007752  6F92               	movwf	_btn1_pushed& (0+255),b
  1172   007754                     l2764:
  1173                           
  1174                           ;LibreriasPIC/main_v2.c: 88:                 if ( PORTBbits.RB2 == 0 ) {
  1175   007754  B481               	btfsc	129,2,c	;volatile
  1176   007756  EFAF  F03B         	goto	u1821
  1177   00775A  EFB1  F03B         	goto	u1820
  1178   00775E                     u1821:
  1179   00775E  EFC4  F03B         	goto	l426
  1180   007762                     u1820:
  1181   007762                     
  1182                           ;LibreriasPIC/main_v2.c: 89:                     _delay((unsigned long)((10)*(8000000UL/
      +                          4000.0)));
  1183   007762  0E1A               	movlw	26
  1184   007764  0100               	movlb	0	; () banked
  1185   007766  6F6D               	movwf	??_main& (0+255),b
  1186   007768  0EF8               	movlw	248
  1187   00776A                     u2197:
  1188   00776A  2EE8               	decfsz	wreg,f,c
  1189   00776C  D7FE               	bra	u2197
  1190   00776E  2F6D               	decfsz	??_main& (0+255),f,b
  1191   007770  D7FC               	bra	u2197
  1192   007772  F000               	nop	
  1193   007774                     l427:
  1194   007774  A281               	btfss	129,1,c	;volatile
  1195   007776  EFBF  F03B         	goto	u1831
  1196   00777A  EFC1  F03B         	goto	u1830
  1197   00777E                     u1831:
  1198   00777E  EFBA  F03B         	goto	l427
  1199   007782                     u1830:
  1200   007782                     
  1201                           ;LibreriasPIC/main_v2.c: 91:                     btn2_pushed = 1;
  1202   007782  0E01               	movlw	1
  1203   007784  0100               	movlb	0	; () banked
  1204   007786  6F91               	movwf	_btn2_pushed& (0+255),b
  1205   007788                     l426:
  1206                           
  1207                           ;LibreriasPIC/main_v2.c: 94:                 if ( btn1_pushed || btn2_pushed ) {
  1208   007788  0100               	movlb	0	; () banked
  1209   00778A  5192               	movf	_btn1_pushed& (0+255),w,b
  1210   00778C  A4D8               	btfss	status,2,c
  1211   00778E  EFCB  F03B         	goto	u1841
  1212   007792  EFCD  F03B         	goto	u1840
  1213   007796                     u1841:
  1214   007796  EFD5  F03B         	goto	l2772
  1215   00779A                     u1840:
  1216   00779A                     
  1217                           ; BSR set to: 0
  1218   00779A  5191               	movf	_btn2_pushed& (0+255),w,b
  1219   00779C  B4D8               	btfsc	status,2,c
  1220   00779E  EFD3  F03B         	goto	u1851
  1221   0077A2  EFD5  F03B         	goto	u1850
  1222   0077A6                     u1851:
  1223   0077A6  EF39  F03F         	goto	l2962
  1224   0077AA                     u1850:
  1225   0077AA                     l2772:
  1226                           
  1227                           ; BSR set to: 0
  1228                           ;LibreriasPIC/main_v2.c: 95:                     Lcd_Clear();
  1229   0077AA  ECF0  F034         	call	_Lcd_Clear	;wreg free
  1230                           
  1231                           ;LibreriasPIC/main_v2.c: 96:                     Lcd_Set_Cursor(1, 1);
  1232   0077AE  0E01               	movlw	1
  1233   0077B0  6E04               	movwf	Lcd_Set_Cursor@b^0,c
  1234   0077B2  0E01               	movlw	1
  1235   0077B4  EC2E  F036         	call	_Lcd_Set_Cursor
  1236   0077B8                     
  1237                           ;LibreriasPIC/main_v2.c: 97:                     Lcd_Write_String("BTN1: _");
  1238   0077B8  0EDD               	movlw	low STR_8
  1239   0077BA  6E05               	movwf	Lcd_Write_String@a^0,c
  1240   0077BC  0E7F               	movlw	high STR_8
  1241   0077BE  6E06               	movwf	(Lcd_Write_String@a+1)^0,c
  1242   0077C0  ECDA  F036         	call	_Lcd_Write_String	;wreg free
  1243   0077C4                     
  1244                           ;LibreriasPIC/main_v2.c: 98:                     Lcd_Set_Cursor(2, 1);
  1245   0077C4  0E01               	movlw	1
  1246   0077C6  6E04               	movwf	Lcd_Set_Cursor@b^0,c
  1247   0077C8  0E02               	movlw	2
  1248   0077CA  EC2E  F036         	call	_Lcd_Set_Cursor
  1249                           
  1250                           ;LibreriasPIC/main_v2.c: 99:                     Lcd_Write_String("BTn2: _");
  1251   0077CE  0EE5               	movlw	low STR_9
  1252   0077D0  6E05               	movwf	Lcd_Write_String@a^0,c
  1253   0077D2  0E7F               	movlw	high STR_9
  1254   0077D4  6E06               	movwf	(Lcd_Write_String@a+1)^0,c
  1255   0077D6  ECDA  F036         	call	_Lcd_Write_String	;wreg free
  1256   0077DA                     
  1257                           ;LibreriasPIC/main_v2.c: 100:                     if (btn1_pushed) {
  1258   0077DA  0100               	movlb	0	; () banked
  1259   0077DC  5192               	movf	_btn1_pushed& (0+255),w,b
  1260   0077DE  B4D8               	btfsc	status,2,c
  1261   0077E0  EFF4  F03B         	goto	u1861
  1262   0077E4  EFF6  F03B         	goto	u1860
  1263   0077E8                     u1861:
  1264   0077E8  EF0E  F03C         	goto	l2786
  1265   0077EC                     u1860:
  1266   0077EC                     
  1267                           ; BSR set to: 0
  1268                           ;LibreriasPIC/main_v2.c: 101:                         Lcd_Clear();
  1269   0077EC  ECF0  F034         	call	_Lcd_Clear	;wreg free
  1270                           
  1271                           ;LibreriasPIC/main_v2.c: 102:                         Lcd_Set_Cursor(1, 1);
  1272   0077F0  0E01               	movlw	1
  1273   0077F2  6E04               	movwf	Lcd_Set_Cursor@b^0,c
  1274   0077F4  0E01               	movlw	1
  1275   0077F6  EC2E  F036         	call	_Lcd_Set_Cursor
  1276   0077FA                     
  1277                           ;LibreriasPIC/main_v2.c: 103:                         Lcd_Write_String("BTN1: :)");
  1278   0077FA  0ECB               	movlw	low STR_10
  1279   0077FC  6E05               	movwf	Lcd_Write_String@a^0,c
  1280   0077FE  0E7F               	movlw	high STR_10
  1281   007800  6E06               	movwf	(Lcd_Write_String@a+1)^0,c
  1282   007802  ECDA  F036         	call	_Lcd_Write_String	;wreg free
  1283   007806                     
  1284                           ;LibreriasPIC/main_v2.c: 104:                         Lcd_Set_Cursor(2, 1);
  1285   007806  0E01               	movlw	1
  1286   007808  6E04               	movwf	Lcd_Set_Cursor@b^0,c
  1287   00780A  0E02               	movlw	2
  1288   00780C  EC2E  F036         	call	_Lcd_Set_Cursor
  1289                           
  1290                           ;LibreriasPIC/main_v2.c: 105:                         Lcd_Write_String("BTn2: _");
  1291   007810  0EE5               	movlw	low STR_9
  1292   007812  6E05               	movwf	Lcd_Write_String@a^0,c
  1293   007814  0E7F               	movlw	high STR_9
  1294   007816  6E06               	movwf	(Lcd_Write_String@a+1)^0,c
  1295   007818  ECDA  F036         	call	_Lcd_Write_String	;wreg free
  1296   00781C                     l2786:
  1297                           
  1298                           ;LibreriasPIC/main_v2.c: 107:                     if (btn2_pushed) {
  1299   00781C  0100               	movlb	0	; () banked
  1300   00781E  5191               	movf	_btn2_pushed& (0+255),w,b
  1301   007820  B4D8               	btfsc	status,2,c
  1302   007822  EF15  F03C         	goto	u1871
  1303   007826  EF17  F03C         	goto	u1870
  1304   00782A                     u1871:
  1305   00782A  EF2F  F03C         	goto	l2794
  1306   00782E                     u1870:
  1307   00782E                     
  1308                           ; BSR set to: 0
  1309                           ;LibreriasPIC/main_v2.c: 108:                         Lcd_Clear();
  1310   00782E  ECF0  F034         	call	_Lcd_Clear	;wreg free
  1311                           
  1312                           ;LibreriasPIC/main_v2.c: 109:                         Lcd_Set_Cursor(1, 1);
  1313   007832  0E01               	movlw	1
  1314   007834  6E04               	movwf	Lcd_Set_Cursor@b^0,c
  1315   007836  0E01               	movlw	1
  1316   007838  EC2E  F036         	call	_Lcd_Set_Cursor
  1317   00783C                     
  1318                           ;LibreriasPIC/main_v2.c: 110:                         Lcd_Write_String("BTN1: _");
  1319   00783C  0EDD               	movlw	low STR_8
  1320   00783E  6E05               	movwf	Lcd_Write_String@a^0,c
  1321   007840  0E7F               	movlw	high STR_8
  1322   007842  6E06               	movwf	(Lcd_Write_String@a+1)^0,c
  1323   007844  ECDA  F036         	call	_Lcd_Write_String	;wreg free
  1324   007848                     
  1325                           ;LibreriasPIC/main_v2.c: 111:                         Lcd_Set_Cursor(2, 1);
  1326   007848  0E01               	movlw	1
  1327   00784A  6E04               	movwf	Lcd_Set_Cursor@b^0,c
  1328   00784C  0E02               	movlw	2
  1329   00784E  EC2E  F036         	call	_Lcd_Set_Cursor
  1330                           
  1331                           ;LibreriasPIC/main_v2.c: 112:                         Lcd_Write_String("BTn2: :)");
  1332   007852  0ED4               	movlw	low STR_13
  1333   007854  6E05               	movwf	Lcd_Write_String@a^0,c
  1334   007856  0E7F               	movlw	high STR_13
  1335   007858  6E06               	movwf	(Lcd_Write_String@a+1)^0,c
  1336   00785A  ECDA  F036         	call	_Lcd_Write_String	;wreg free
  1337   00785E                     l2794:
  1338                           
  1339                           ;LibreriasPIC/main_v2.c: 114:                     if (btn2_pushed && btn2_pushed) {
  1340   00785E  0100               	movlb	0	; () banked
  1341   007860  5191               	movf	_btn2_pushed& (0+255),w,b
  1342   007862  B4D8               	btfsc	status,2,c
  1343   007864  EF36  F03C         	goto	u1881
  1344   007868  EF38  F03C         	goto	u1880
  1345   00786C                     u1881:
  1346   00786C  EF5B  F03C         	goto	l2806
  1347   007870                     u1880:
  1348   007870                     
  1349                           ; BSR set to: 0
  1350   007870  5191               	movf	_btn2_pushed& (0+255),w,b
  1351   007872  B4D8               	btfsc	status,2,c
  1352   007874  EF3E  F03C         	goto	u1891
  1353   007878  EF40  F03C         	goto	u1890
  1354   00787C                     u1891:
  1355   00787C  EF5B  F03C         	goto	l2806
  1356   007880                     u1890:
  1357   007880                     
  1358                           ; BSR set to: 0
  1359                           ;LibreriasPIC/main_v2.c: 115:                         Lcd_Clear();
  1360   007880  ECF0  F034         	call	_Lcd_Clear	;wreg free
  1361                           
  1362                           ;LibreriasPIC/main_v2.c: 116:                         Lcd_Set_Cursor(1, 1);
  1363   007884  0E01               	movlw	1
  1364   007886  6E04               	movwf	Lcd_Set_Cursor@b^0,c
  1365   007888  0E01               	movlw	1
  1366   00788A  EC2E  F036         	call	_Lcd_Set_Cursor
  1367   00788E                     
  1368                           ;LibreriasPIC/main_v2.c: 117:                         Lcd_Write_String("BTN1: :)");
  1369   00788E  0ECB               	movlw	low STR_10
  1370   007890  6E05               	movwf	Lcd_Write_String@a^0,c
  1371   007892  0E7F               	movlw	high STR_10
  1372   007894  6E06               	movwf	(Lcd_Write_String@a+1)^0,c
  1373   007896  ECDA  F036         	call	_Lcd_Write_String	;wreg free
  1374   00789A                     
  1375                           ;LibreriasPIC/main_v2.c: 118:                         Lcd_Set_Cursor(2, 1);
  1376   00789A  0E01               	movlw	1
  1377   00789C  6E04               	movwf	Lcd_Set_Cursor@b^0,c
  1378   00789E  0E02               	movlw	2
  1379   0078A0  EC2E  F036         	call	_Lcd_Set_Cursor
  1380                           
  1381                           ;LibreriasPIC/main_v2.c: 119:                         Lcd_Write_String("BTn2: :)");
  1382   0078A4  0ED4               	movlw	low STR_13
  1383   0078A6  6E05               	movwf	Lcd_Write_String@a^0,c
  1384   0078A8  0E7F               	movlw	high STR_13
  1385   0078AA  6E06               	movwf	(Lcd_Write_String@a+1)^0,c
  1386   0078AC  ECDA  F036         	call	_Lcd_Write_String	;wreg free
  1387   0078B0                     
  1388                           ;LibreriasPIC/main_v2.c: 121:                         two_buttons_pushed = 1;
  1389   0078B0  0E01               	movlw	1
  1390   0078B2  0100               	movlb	0	; () banked
  1391   0078B4  6F90               	movwf	_two_buttons_pushed& (0+255),b
  1392   0078B6                     l2806:
  1393                           
  1394                           ; BSR set to: 0
  1395                           ;LibreriasPIC/main_v2.c: 124:                     if ( two_buttons_pushed ) {
  1396   0078B6  5190               	movf	_two_buttons_pushed& (0+255),w,b
  1397   0078B8  B4D8               	btfsc	status,2,c
  1398   0078BA  EF61  F03C         	goto	u1901
  1399   0078BE  EF63  F03C         	goto	u1900
  1400   0078C2                     u1901:
  1401   0078C2  EF39  F03F         	goto	l414
  1402   0078C6                     u1900:
  1403   0078C6                     
  1404                           ; BSR set to: 0
  1405                           ;LibreriasPIC/main_v2.c: 125:                         Lcd_Clear();
  1406   0078C6  ECF0  F034         	call	_Lcd_Clear	;wreg free
  1407                           
  1408                           ;LibreriasPIC/main_v2.c: 126:                         Lcd_Set_Cursor(1, 1);
  1409   0078CA  0E01               	movlw	1
  1410   0078CC  6E04               	movwf	Lcd_Set_Cursor@b^0,c
  1411   0078CE  0E01               	movlw	1
  1412   0078D0  EC2E  F036         	call	_Lcd_Set_Cursor
  1413   0078D4                     
  1414                           ;LibreriasPIC/main_v2.c: 127:                         Lcd_Write_String("Botones check");
  1415   0078D4  0E66               	movlw	low STR_16
  1416   0078D6  6E05               	movwf	Lcd_Write_String@a^0,c
  1417   0078D8  0E7F               	movlw	high STR_16
  1418   0078DA  6E06               	movwf	(Lcd_Write_String@a+1)^0,c
  1419   0078DC  ECDA  F036         	call	_Lcd_Write_String	;wreg free
  1420   0078E0                     
  1421                           ;LibreriasPIC/main_v2.c: 128:                         Lcd_Set_Cursor(2, 1);
  1422   0078E0  0E01               	movlw	1
  1423   0078E2  6E04               	movwf	Lcd_Set_Cursor@b^0,c
  1424   0078E4  0E02               	movlw	2
  1425   0078E6  EC2E  F036         	call	_Lcd_Set_Cursor
  1426                           
  1427                           ;LibreriasPIC/main_v2.c: 129:                         Lcd_Write_String("Init test leds")
      +                          ;
  1428   0078EA  0E48               	movlw	low STR_17
  1429   0078EC  6E05               	movwf	Lcd_Write_String@a^0,c
  1430   0078EE  0E7F               	movlw	high STR_17
  1431   0078F0  6E06               	movwf	(Lcd_Write_String@a+1)^0,c
  1432   0078F2  ECDA  F036         	call	_Lcd_Write_String	;wreg free
  1433   0078F6                     
  1434                           ;LibreriasPIC/main_v2.c: 130:                         _delay((unsigned long)((1000)*(800
      +                          0000UL/4000.0)));
  1435   0078F6  0E0B               	movlw	11
  1436   0078F8  0100               	movlb	0	; () banked
  1437   0078FA  6F6E               	movwf	(??_main+1)& (0+255),b
  1438   0078FC  0E26               	movlw	38
  1439   0078FE  6F6D               	movwf	??_main& (0+255),b
  1440   007900  0E5D               	movlw	93
  1441   007902                     u2207:
  1442   007902  2EE8               	decfsz	wreg,f,c
  1443   007904  D7FE               	bra	u2207
  1444   007906  2F6D               	decfsz	??_main& (0+255),f,b
  1445   007908  D7FC               	bra	u2207
  1446   00790A  2F6E               	decfsz	(??_main+1)& (0+255),f,b
  1447   00790C  D7FA               	bra	u2207
  1448   00790E  D000               	nop2	
  1449   007910                     
  1450                           ;LibreriasPIC/main_v2.c: 132:                         ESTADO_APP = 3;
  1451   007910  0E03               	movlw	3
  1452   007912  0100               	movlb	0	; () banked
  1453   007914  6F93               	movwf	_ESTADO_APP& (0+255),b
  1454   007916  EF39  F03F         	goto	l2962
  1455   00791A                     l2818:
  1456                           
  1457                           ; BSR set to: 0
  1458                           ;LibreriasPIC/main_v2.c: 142:                 Lcd_Clear();
  1459   00791A  ECF0  F034         	call	_Lcd_Clear	;wreg free
  1460                           
  1461                           ;LibreriasPIC/main_v2.c: 143:                 Lcd_Set_Cursor(1, 1);
  1462   00791E  0E01               	movlw	1
  1463   007920  6E04               	movwf	Lcd_Set_Cursor@b^0,c
  1464   007922  0E01               	movlw	1
  1465   007924  EC2E  F036         	call	_Lcd_Set_Cursor
  1466   007928                     
  1467                           ;LibreriasPIC/main_v2.c: 144:                 Lcd_Write_String("Probando leds...");
  1468   007928  0EC3               	movlw	low STR_18
  1469   00792A  6E05               	movwf	Lcd_Write_String@a^0,c
  1470   00792C  0E7E               	movlw	high STR_18
  1471   00792E  6E06               	movwf	(Lcd_Write_String@a+1)^0,c
  1472   007930  ECDA  F036         	call	_Lcd_Write_String	;wreg free
  1473                           
  1474                           ;LibreriasPIC/main_v2.c: 147:                 while ( PORTBbits.RB1 != 0 || PORTBbits.RB
      +                          2 != 0 ) {
  1475   007934  EF14  F03D         	goto	l2848
  1476   007938                     l2822:
  1477                           
  1478                           ;LibreriasPIC/main_v2.c: 149:                     for (int i = 0; i <= 7; i++) {
  1479   007938  0E00               	movlw	0
  1480   00793A  0100               	movlb	0	; () banked
  1481   00793C  6F88               	movwf	(main@i_1471+1)& (0+255),b
  1482   00793E  0E00               	movlw	0
  1483   007940  6F87               	movwf	main@i_1471& (0+255),b
  1484   007942                     l2824:
  1485                           
  1486                           ; BSR set to: 0
  1487   007942  BF88               	btfsc	(main@i_1471+1)& (0+255),7,b
  1488   007944  EFAD  F03C         	goto	u1911
  1489   007948  5188               	movf	(main@i_1471+1)& (0+255),w,b
  1490   00794A  E109               	bnz	u1910
  1491   00794C  0E08               	movlw	8
  1492   00794E  5D87               	subwf	main@i_1471& (0+255),w,b
  1493   007950  A0D8               	btfss	status,0,c
  1494   007952  EFAD  F03C         	goto	u1911
  1495   007956  EFAF  F03C         	goto	u1910
  1496   00795A                     u1911:
  1497   00795A  EFB1  F03C         	goto	l2828
  1498   00795E                     u1910:
  1499   00795E  EFD2  F03C         	goto	l2834
  1500   007962                     l2828:
  1501                           
  1502                           ; BSR set to: 0
  1503                           ;LibreriasPIC/main_v2.c: 150:                         LATD = ( 1 << i );
  1504   007962  C087  F06D         	movff	main@i_1471,??_main
  1505   007966  0E01               	movlw	1
  1506   007968  6F6E               	movwf	(??_main+1)& (0+255),b
  1507   00796A  2B6D               	incf	??_main& (0+255),f,b
  1508   00796C  EFBA  F03C         	goto	u1924
  1509   007970                     u1925:
  1510   007970  90D8               	bcf	status,0,c
  1511   007972  376E               	rlcf	(??_main+1)& (0+255),f,b
  1512   007974                     u1924:
  1513   007974  2F6D               	decfsz	??_main& (0+255),f,b
  1514   007976  EFB8  F03C         	goto	u1925
  1515   00797A  0100               	movlb	0	; () banked
  1516   00797C  516E               	movf	(??_main+1)& (0+255),w,b
  1517   00797E  6E8C               	movwf	140,c	;volatile
  1518   007980                     
  1519                           ; BSR set to: 0
  1520                           ;LibreriasPIC/main_v2.c: 151:                         _delay((unsigned long)((250)*(8000
      +                          000UL/4000.0)));
  1521   007980  0E03               	movlw	3
  1522   007982  0100               	movlb	0	; () banked
  1523   007984  6F6E               	movwf	(??_main+1)& (0+255),b
  1524   007986  0E8A               	movlw	138
  1525   007988  6F6D               	movwf	??_main& (0+255),b
  1526   00798A  0E55               	movlw	85
  1527   00798C                     u2217:
  1528   00798C  2EE8               	decfsz	wreg,f,c
  1529   00798E  D7FE               	bra	u2217
  1530   007990  2F6D               	decfsz	??_main& (0+255),f,b
  1531   007992  D7FC               	bra	u2217
  1532   007994  2F6E               	decfsz	(??_main+1)& (0+255),f,b
  1533   007996  D7FA               	bra	u2217
  1534   007998  D000               	nop2	
  1535                           
  1536                           ;LibreriasPIC/main_v2.c: 152:                     }
  1537   00799A  0100               	movlb	0	; () banked
  1538   00799C  4B87               	infsnz	main@i_1471& (0+255),f,b
  1539   00799E  2B88               	incf	(main@i_1471+1)& (0+255),f,b
  1540   0079A0  EFA1  F03C         	goto	l2824
  1541   0079A4                     l2834:
  1542                           
  1543                           ; BSR set to: 0
  1544                           ;LibreriasPIC/main_v2.c: 155:                     for (int i = 0; i <= 7; i++) {
  1545   0079A4  0E00               	movlw	0
  1546   0079A6  6F8A               	movwf	(main@i_1472+1)& (0+255),b
  1547   0079A8  0E00               	movlw	0
  1548   0079AA  6F89               	movwf	main@i_1472& (0+255),b
  1549   0079AC                     l2836:
  1550                           
  1551                           ; BSR set to: 0
  1552   0079AC  BF8A               	btfsc	(main@i_1472+1)& (0+255),7,b
  1553   0079AE  EFE2  F03C         	goto	u1931
  1554   0079B2  518A               	movf	(main@i_1472+1)& (0+255),w,b
  1555   0079B4  E109               	bnz	u1930
  1556   0079B6  0E08               	movlw	8
  1557   0079B8  5D89               	subwf	main@i_1472& (0+255),w,b
  1558   0079BA  A0D8               	btfss	status,0,c
  1559   0079BC  EFE2  F03C         	goto	u1931
  1560   0079C0  EFE4  F03C         	goto	u1930
  1561   0079C4                     u1931:
  1562   0079C4  EFE6  F03C         	goto	l2840
  1563   0079C8                     u1930:
  1564   0079C8  EF07  F03D         	goto	l2846
  1565   0079CC                     l2840:
  1566                           
  1567                           ; BSR set to: 0
  1568                           ;LibreriasPIC/main_v2.c: 156:                         LATD = ( 0 << i );
  1569   0079CC  C089  F06D         	movff	main@i_1472,??_main
  1570   0079D0  0E00               	movlw	0
  1571   0079D2  6F6E               	movwf	(??_main+1)& (0+255),b
  1572   0079D4  2B6D               	incf	??_main& (0+255),f,b
  1573   0079D6  EFEF  F03C         	goto	u1944
  1574   0079DA                     u1945:
  1575   0079DA  90D8               	bcf	status,0,c
  1576   0079DC  376E               	rlcf	(??_main+1)& (0+255),f,b
  1577   0079DE                     u1944:
  1578   0079DE  2F6D               	decfsz	??_main& (0+255),f,b
  1579   0079E0  EFED  F03C         	goto	u1945
  1580   0079E4  0100               	movlb	0	; () banked
  1581   0079E6  516E               	movf	(??_main+1)& (0+255),w,b
  1582   0079E8  6E8C               	movwf	140,c	;volatile
  1583   0079EA                     
  1584                           ; BSR set to: 0
  1585                           ;LibreriasPIC/main_v2.c: 157:                         _delay((unsigned long)((250)*(8000
      +                          000UL/4000.0)));
  1586   0079EA  0E03               	movlw	3
  1587   0079EC  0100               	movlb	0	; () banked
  1588   0079EE  6F6E               	movwf	(??_main+1)& (0+255),b
  1589   0079F0  0E8A               	movlw	138
  1590   0079F2  6F6D               	movwf	??_main& (0+255),b
  1591   0079F4  0E55               	movlw	85
  1592   0079F6                     u2227:
  1593   0079F6  2EE8               	decfsz	wreg,f,c
  1594   0079F8  D7FE               	bra	u2227
  1595   0079FA  2F6D               	decfsz	??_main& (0+255),f,b
  1596   0079FC  D7FC               	bra	u2227
  1597   0079FE  2F6E               	decfsz	(??_main+1)& (0+255),f,b
  1598   007A00  D7FA               	bra	u2227
  1599   007A02  D000               	nop2	
  1600                           
  1601                           ;LibreriasPIC/main_v2.c: 158:                     }
  1602   007A04  0100               	movlb	0	; () banked
  1603   007A06  4B89               	infsnz	main@i_1472& (0+255),f,b
  1604   007A08  2B8A               	incf	(main@i_1472+1)& (0+255),f,b
  1605   007A0A  EFD6  F03C         	goto	l2836
  1606   007A0E                     l2846:
  1607                           
  1608                           ; BSR set to: 0
  1609                           ;LibreriasPIC/main_v2.c: 161:                     _delay((unsigned long)((100)*(8000000U
      +                          L/4000.0)));
  1610   007A0E  0E02               	movlw	2
  1611   007A10  0100               	movlb	0	; () banked
  1612   007A12  6F6E               	movwf	(??_main+1)& (0+255),b
  1613   007A14  0E04               	movlw	4
  1614   007A16  6F6D               	movwf	??_main& (0+255),b
  1615   007A18  0EBA               	movlw	186
  1616   007A1A                     u2237:
  1617   007A1A  2EE8               	decfsz	wreg,f,c
  1618   007A1C  D7FE               	bra	u2237
  1619   007A1E  2F6D               	decfsz	??_main& (0+255),f,b
  1620   007A20  D7FC               	bra	u2237
  1621   007A22  2F6E               	decfsz	(??_main+1)& (0+255),f,b
  1622   007A24  D7FA               	bra	u2237
  1623   007A26  F000               	nop	
  1624   007A28                     l2848:
  1625                           
  1626                           ;LibreriasPIC/main_v2.c: 147:                 while ( PORTBbits.RB1 != 0 || PORTBbits.RB
      +                          2 != 0 ) {
  1627   007A28  B281               	btfsc	129,1,c	;volatile
  1628   007A2A  EF19  F03D         	goto	u1951
  1629   007A2E  EF1B  F03D         	goto	u1950
  1630   007A32                     u1951:
  1631   007A32  EF9C  F03C         	goto	l2822
  1632   007A36                     u1950:
  1633   007A36  B481               	btfsc	129,2,c	;volatile
  1634   007A38  EF20  F03D         	goto	u1961
  1635   007A3C  EF22  F03D         	goto	u1960
  1636   007A40                     u1961:
  1637   007A40  EF9C  F03C         	goto	l2822
  1638   007A44                     u1960:
  1639   007A44                     
  1640                           ;LibreriasPIC/main_v2.c: 164:                 if ( PORTBbits.RB1 == 0 ) {
  1641   007A44  B281               	btfsc	129,1,c	;volatile
  1642   007A46  EF27  F03D         	goto	u1971
  1643   007A4A  EF29  F03D         	goto	u1970
  1644   007A4E                     u1971:
  1645   007A4E  EF61  F03D         	goto	l2864
  1646   007A52                     u1970:
  1647   007A52                     
  1648                           ;LibreriasPIC/main_v2.c: 165:                     _delay((unsigned long)((10)*(8000000UL
      +                          /4000.0)));
  1649   007A52  0E1A               	movlw	26
  1650   007A54  0100               	movlb	0	; () banked
  1651   007A56  6F6D               	movwf	??_main& (0+255),b
  1652   007A58  0EF8               	movlw	248
  1653   007A5A                     u2247:
  1654   007A5A  2EE8               	decfsz	wreg,f,c
  1655   007A5C  D7FE               	bra	u2247
  1656   007A5E  2F6D               	decfsz	??_main& (0+255),f,b
  1657   007A60  D7FC               	bra	u2247
  1658   007A62  F000               	nop	
  1659   007A64                     l446:
  1660   007A64  A281               	btfss	129,1,c	;volatile
  1661   007A66  EF37  F03D         	goto	u1981
  1662   007A6A  EF39  F03D         	goto	u1980
  1663   007A6E                     u1981:
  1664   007A6E  EF32  F03D         	goto	l446
  1665   007A72                     u1980:
  1666   007A72                     
  1667                           ;LibreriasPIC/main_v2.c: 167:                     Lcd_Clear();
  1668   007A72  ECF0  F034         	call	_Lcd_Clear	;wreg free
  1669                           
  1670                           ;LibreriasPIC/main_v2.c: 168:                     Lcd_Set_Cursor(1, 1);
  1671   007A76  0E01               	movlw	1
  1672   007A78  6E04               	movwf	Lcd_Set_Cursor@b^0,c
  1673   007A7A  0E01               	movlw	1
  1674   007A7C  EC2E  F036         	call	_Lcd_Set_Cursor
  1675   007A80                     
  1676                           ;LibreriasPIC/main_v2.c: 169:                     Lcd_Write_String("Leds correctos");
  1677   007A80  0E57               	movlw	low STR_19
  1678   007A82  6E05               	movwf	Lcd_Write_String@a^0,c
  1679   007A84  0E7F               	movlw	high STR_19
  1680   007A86  6E06               	movwf	(Lcd_Write_String@a+1)^0,c
  1681   007A88  ECDA  F036         	call	_Lcd_Write_String	;wreg free
  1682   007A8C                     
  1683                           ;LibreriasPIC/main_v2.c: 170:                     Lcd_Set_Cursor(2, 1);
  1684   007A8C  0E01               	movlw	1
  1685   007A8E  6E04               	movwf	Lcd_Set_Cursor@b^0,c
  1686   007A90  0E02               	movlw	2
  1687   007A92  EC2E  F036         	call	_Lcd_Set_Cursor
  1688                           
  1689                           ;LibreriasPIC/main_v2.c: 171:                     Lcd_Write_String("Init test Relays");
  1690   007A96  0E07               	movlw	low STR_20
  1691   007A98  6E05               	movwf	Lcd_Write_String@a^0,c
  1692   007A9A  0E7F               	movlw	high STR_20
  1693   007A9C  6E06               	movwf	(Lcd_Write_String@a+1)^0,c
  1694   007A9E  ECDA  F036         	call	_Lcd_Write_String	;wreg free
  1695   007AA2                     
  1696                           ;LibreriasPIC/main_v2.c: 172:                     _delay((unsigned long)((1000)*(8000000
      +                          UL/4000.0)));
  1697   007AA2  0E0B               	movlw	11
  1698   007AA4  0100               	movlb	0	; () banked
  1699   007AA6  6F6E               	movwf	(??_main+1)& (0+255),b
  1700   007AA8  0E26               	movlw	38
  1701   007AAA  6F6D               	movwf	??_main& (0+255),b
  1702   007AAC  0E5D               	movlw	93
  1703   007AAE                     u2257:
  1704   007AAE  2EE8               	decfsz	wreg,f,c
  1705   007AB0  D7FE               	bra	u2257
  1706   007AB2  2F6D               	decfsz	??_main& (0+255),f,b
  1707   007AB4  D7FC               	bra	u2257
  1708   007AB6  2F6E               	decfsz	(??_main+1)& (0+255),f,b
  1709   007AB8  D7FA               	bra	u2257
  1710   007ABA  D000               	nop2	
  1711   007ABC                     
  1712                           ;LibreriasPIC/main_v2.c: 173:                     ESTADO_APP = 4;
  1713   007ABC  0E04               	movlw	4
  1714   007ABE  0100               	movlb	0	; () banked
  1715   007AC0  6F93               	movwf	_ESTADO_APP& (0+255),b
  1716   007AC2                     l2864:
  1717                           
  1718                           ;LibreriasPIC/main_v2.c: 176:                 if ( PORTBbits.RB2 == 0 ) {
  1719   007AC2  B481               	btfsc	129,2,c	;volatile
  1720   007AC4  EF66  F03D         	goto	u1991
  1721   007AC8  EF68  F03D         	goto	u1990
  1722   007ACC                     u1991:
  1723   007ACC  EF39  F03F         	goto	l414
  1724   007AD0                     u1990:
  1725   007AD0                     
  1726                           ;LibreriasPIC/main_v2.c: 177:                     _delay((unsigned long)((10)*(8000000UL
      +                          /4000.0)));
  1727   007AD0  0E1A               	movlw	26
  1728   007AD2  0100               	movlb	0	; () banked
  1729   007AD4  6F6D               	movwf	??_main& (0+255),b
  1730   007AD6  0EF8               	movlw	248
  1731   007AD8                     u2267:
  1732   007AD8  2EE8               	decfsz	wreg,f,c
  1733   007ADA  D7FE               	bra	u2267
  1734   007ADC  2F6D               	decfsz	??_main& (0+255),f,b
  1735   007ADE  D7FC               	bra	u2267
  1736   007AE0  F000               	nop	
  1737   007AE2                     l450:
  1738   007AE2  A281               	btfss	129,1,c	;volatile
  1739   007AE4  EF76  F03D         	goto	u2001
  1740   007AE8  EF78  F03D         	goto	u2000
  1741   007AEC                     u2001:
  1742   007AEC  EF71  F03D         	goto	l450
  1743   007AF0                     u2000:
  1744   007AF0                     
  1745                           ;LibreriasPIC/main_v2.c: 179:                     Lcd_Clear();
  1746   007AF0  ECF0  F034         	call	_Lcd_Clear	;wreg free
  1747                           
  1748                           ;LibreriasPIC/main_v2.c: 180:                     Lcd_Set_Cursor(1, 1);
  1749   007AF4  0E01               	movlw	1
  1750   007AF6  6E04               	movwf	Lcd_Set_Cursor@b^0,c
  1751   007AF8  0E01               	movlw	1
  1752   007AFA  EC2E  F036         	call	_Lcd_Set_Cursor
  1753   007AFE                     
  1754                           ;LibreriasPIC/main_v2.c: 181:                     Lcd_Write_String("Leds incorrectos");
  1755   007AFE  0EF6               	movlw	low STR_21
  1756   007B00  6E05               	movwf	Lcd_Write_String@a^0,c
  1757   007B02  0E7E               	movlw	high STR_21
  1758   007B04  6E06               	movwf	(Lcd_Write_String@a+1)^0,c
  1759   007B06  ECDA  F036         	call	_Lcd_Write_String	;wreg free
  1760   007B0A                     
  1761                           ;LibreriasPIC/main_v2.c: 182:                     Lcd_Set_Cursor(2, 1);
  1762   007B0A  0E01               	movlw	1
  1763   007B0C  6E04               	movwf	Lcd_Set_Cursor@b^0,c
  1764   007B0E  0E02               	movlw	2
  1765   007B10  EC2E  F036         	call	_Lcd_Set_Cursor
  1766                           
  1767                           ;LibreriasPIC/main_v2.c: 183:                     Lcd_Write_String("Init test Relays");
  1768   007B14  0E07               	movlw	low STR_20
  1769   007B16  6E05               	movwf	Lcd_Write_String@a^0,c
  1770   007B18  0E7F               	movlw	high STR_20
  1771   007B1A  6E06               	movwf	(Lcd_Write_String@a+1)^0,c
  1772   007B1C  ECDA  F036         	call	_Lcd_Write_String	;wreg free
  1773   007B20                     
  1774                           ;LibreriasPIC/main_v2.c: 184:                     _delay((unsigned long)((1000)*(8000000
      +                          UL/4000.0)));
  1775   007B20  0E0B               	movlw	11
  1776   007B22  0100               	movlb	0	; () banked
  1777   007B24  6F6E               	movwf	(??_main+1)& (0+255),b
  1778   007B26  0E26               	movlw	38
  1779   007B28  6F6D               	movwf	??_main& (0+255),b
  1780   007B2A  0E5D               	movlw	93
  1781   007B2C                     u2277:
  1782   007B2C  2EE8               	decfsz	wreg,f,c
  1783   007B2E  D7FE               	bra	u2277
  1784   007B30  2F6D               	decfsz	??_main& (0+255),f,b
  1785   007B32  D7FC               	bra	u2277
  1786   007B34  2F6E               	decfsz	(??_main+1)& (0+255),f,b
  1787   007B36  D7FA               	bra	u2277
  1788   007B38  D000               	nop2	
  1789   007B3A                     
  1790                           ;LibreriasPIC/main_v2.c: 185:                     ESTADO_APP = 4;
  1791   007B3A  0E04               	movlw	4
  1792   007B3C  0100               	movlb	0	; () banked
  1793   007B3E  6F93               	movwf	_ESTADO_APP& (0+255),b
  1794   007B40  EF39  F03F         	goto	l2962
  1795   007B44                     l2878:
  1796                           
  1797                           ; BSR set to: 0
  1798                           ;LibreriasPIC/main_v2.c: 191:                 Lcd_Clear();
  1799   007B44  ECF0  F034         	call	_Lcd_Clear	;wreg free
  1800                           
  1801                           ;LibreriasPIC/main_v2.c: 192:                 Lcd_Set_Cursor(1, 1);
  1802   007B48  0E01               	movlw	1
  1803   007B4A  6E04               	movwf	Lcd_Set_Cursor@b^0,c
  1804   007B4C  0E01               	movlw	1
  1805   007B4E  EC2E  F036         	call	_Lcd_Set_Cursor
  1806   007B52                     
  1807                           ;LibreriasPIC/main_v2.c: 193:                 Lcd_Write_String("Relays func?...");
  1808   007B52  0E18               	movlw	low STR_23
  1809   007B54  6E05               	movwf	Lcd_Write_String@a^0,c
  1810   007B56  0E7F               	movlw	high STR_23
  1811   007B58  6E06               	movwf	(Lcd_Write_String@a+1)^0,c
  1812   007B5A  ECDA  F036         	call	_Lcd_Write_String	;wreg free
  1813   007B5E                     
  1814                           ;LibreriasPIC/main_v2.c: 196:                 if ( PORTBbits.RB0 == 0 ) {
  1815   007B5E  B081               	btfsc	129,0,c	;volatile
  1816   007B60  EFB4  F03D         	goto	u2011
  1817   007B64  EFB6  F03D         	goto	u2010
  1818   007B68                     u2011:
  1819   007B68  EFE8  F03D         	goto	l2888
  1820   007B6C                     u2010:
  1821   007B6C                     
  1822                           ;LibreriasPIC/main_v2.c: 197:                     _delay((unsigned long)((10)*(8000000UL
      +                          /4000.0)));
  1823   007B6C  0E1A               	movlw	26
  1824   007B6E  0100               	movlb	0	; () banked
  1825   007B70  6F6D               	movwf	??_main& (0+255),b
  1826   007B72  0EF8               	movlw	248
  1827   007B74                     u2287:
  1828   007B74  2EE8               	decfsz	wreg,f,c
  1829   007B76  D7FE               	bra	u2287
  1830   007B78  2F6D               	decfsz	??_main& (0+255),f,b
  1831   007B7A  D7FC               	bra	u2287
  1832   007B7C  F000               	nop	
  1833   007B7E                     l455:
  1834   007B7E  A081               	btfss	129,0,c	;volatile
  1835   007B80  EFC4  F03D         	goto	u2021
  1836   007B84  EFC6  F03D         	goto	u2020
  1837   007B88                     u2021:
  1838   007B88  EFBF  F03D         	goto	l455
  1839   007B8C                     u2020:
  1840   007B8C                     
  1841                           ;LibreriasPIC/main_v2.c: 199:                     LATEbits.LE0 = ~LATEbits.LE0;
  1842   007B8C  B08D               	btfsc	141,0,c	;volatile
  1843   007B8E  EFCB  F03D         	goto	u2031
  1844   007B92  EFCE  F03D         	goto	u2030
  1845   007B96                     u2031:
  1846   007B96  0E01               	movlw	1
  1847   007B98  EFCF  F03D         	goto	u2036
  1848   007B9C                     u2030:
  1849   007B9C  0E00               	movlw	0
  1850   007B9E                     u2036:
  1851   007B9E  0AFF               	xorlw	255
  1852   007BA0  0100               	movlb	0	; () banked
  1853   007BA2  6F6D               	movwf	??_main& (0+255),b
  1854   007BA4  508D               	movf	141,w,c	;volatile
  1855   007BA6  196D               	xorwf	??_main& (0+255),w,b
  1856   007BA8  0BFE               	andlw	-2
  1857   007BAA  196D               	xorwf	??_main& (0+255),w,b
  1858   007BAC  6E8D               	movwf	141,c	;volatile
  1859                           
  1860                           ;LibreriasPIC/main_v2.c: 200:                     LATBbits.LB4 = ~LATBbits.LB4;
  1861   007BAE  B88A               	btfsc	138,4,c	;volatile
  1862   007BB0  EFDC  F03D         	goto	u2041
  1863   007BB4  EFDF  F03D         	goto	u2040
  1864   007BB8                     u2041:
  1865   007BB8  0E01               	movlw	1
  1866   007BBA  EFE0  F03D         	goto	u2046
  1867   007BBE                     u2040:
  1868   007BBE  0E00               	movlw	0
  1869   007BC0                     u2046:
  1870   007BC0  0AFF               	xorlw	255
  1871   007BC2  6F6D               	movwf	??_main& (0+255),b
  1872   007BC4  3B6D               	swapf	??_main& (0+255),f,b
  1873   007BC6  508A               	movf	138,w,c	;volatile
  1874   007BC8  196D               	xorwf	??_main& (0+255),w,b
  1875   007BCA  0BEF               	andlw	-17
  1876   007BCC  196D               	xorwf	??_main& (0+255),w,b
  1877   007BCE  6E8A               	movwf	138,c	;volatile
  1878   007BD0                     l2888:
  1879                           
  1880                           ;LibreriasPIC/main_v2.c: 203:                 if ( PORTBbits.RB1 == 0 ) {
  1881   007BD0  B281               	btfsc	129,1,c	;volatile
  1882   007BD2  EFED  F03D         	goto	u2051
  1883   007BD6  EFEF  F03D         	goto	u2050
  1884   007BDA                     u2051:
  1885   007BDA  EF27  F03E         	goto	l2902
  1886   007BDE                     u2050:
  1887   007BDE                     
  1888                           ;LibreriasPIC/main_v2.c: 204:                     _delay((unsigned long)((10)*(8000000UL
      +                          /4000.0)));
  1889   007BDE  0E1A               	movlw	26
  1890   007BE0  0100               	movlb	0	; () banked
  1891   007BE2  6F6D               	movwf	??_main& (0+255),b
  1892   007BE4  0EF8               	movlw	248
  1893   007BE6                     u2297:
  1894   007BE6  2EE8               	decfsz	wreg,f,c
  1895   007BE8  D7FE               	bra	u2297
  1896   007BEA  2F6D               	decfsz	??_main& (0+255),f,b
  1897   007BEC  D7FC               	bra	u2297
  1898   007BEE  F000               	nop	
  1899   007BF0                     l459:
  1900   007BF0  A281               	btfss	129,1,c	;volatile
  1901   007BF2  EFFD  F03D         	goto	u2061
  1902   007BF6  EFFF  F03D         	goto	u2060
  1903   007BFA                     u2061:
  1904   007BFA  EFF8  F03D         	goto	l459
  1905   007BFE                     u2060:
  1906   007BFE                     
  1907                           ;LibreriasPIC/main_v2.c: 206:                     Lcd_Clear();
  1908   007BFE  ECF0  F034         	call	_Lcd_Clear	;wreg free
  1909                           
  1910                           ;LibreriasPIC/main_v2.c: 207:                     Lcd_Set_Cursor(1, 1);
  1911   007C02  0E01               	movlw	1
  1912   007C04  6E04               	movwf	Lcd_Set_Cursor@b^0,c
  1913   007C06  0E01               	movlw	1
  1914   007C08  EC2E  F036         	call	_Lcd_Set_Cursor
  1915   007C0C                     
  1916                           ;LibreriasPIC/main_v2.c: 208:                     Lcd_Write_String("Relays bien!");
  1917   007C0C  0E8F               	movlw	low STR_24
  1918   007C0E  6E05               	movwf	Lcd_Write_String@a^0,c
  1919   007C10  0E7F               	movlw	high STR_24
  1920   007C12  6E06               	movwf	(Lcd_Write_String@a+1)^0,c
  1921   007C14  ECDA  F036         	call	_Lcd_Write_String	;wreg free
  1922   007C18                     
  1923                           ;LibreriasPIC/main_v2.c: 209:                     Lcd_Set_Cursor(2, 1);
  1924   007C18  0E01               	movlw	1
  1925   007C1A  6E04               	movwf	Lcd_Set_Cursor@b^0,c
  1926   007C1C  0E02               	movlw	2
  1927   007C1E  EC2E  F036         	call	_Lcd_Set_Cursor
  1928                           
  1929                           ;LibreriasPIC/main_v2.c: 210:                     Lcd_Write_String("Init test Buzzer");
  1930   007C22  0EE5               	movlw	low STR_25
  1931   007C24  6E05               	movwf	Lcd_Write_String@a^0,c
  1932   007C26  0E7E               	movlw	high STR_25
  1933   007C28  6E06               	movwf	(Lcd_Write_String@a+1)^0,c
  1934   007C2A  ECDA  F036         	call	_Lcd_Write_String	;wreg free
  1935   007C2E                     
  1936                           ;LibreriasPIC/main_v2.c: 211:                     _delay((unsigned long)((1000)*(8000000
      +                          UL/4000.0)));
  1937   007C2E  0E0B               	movlw	11
  1938   007C30  0100               	movlb	0	; () banked
  1939   007C32  6F6E               	movwf	(??_main+1)& (0+255),b
  1940   007C34  0E26               	movlw	38
  1941   007C36  6F6D               	movwf	??_main& (0+255),b
  1942   007C38  0E5D               	movlw	93
  1943   007C3A                     u2307:
  1944   007C3A  2EE8               	decfsz	wreg,f,c
  1945   007C3C  D7FE               	bra	u2307
  1946   007C3E  2F6D               	decfsz	??_main& (0+255),f,b
  1947   007C40  D7FC               	bra	u2307
  1948   007C42  2F6E               	decfsz	(??_main+1)& (0+255),f,b
  1949   007C44  D7FA               	bra	u2307
  1950   007C46  D000               	nop2	
  1951   007C48                     
  1952                           ;LibreriasPIC/main_v2.c: 212:                     ESTADO_APP = 5;
  1953   007C48  0E05               	movlw	5
  1954   007C4A  0100               	movlb	0	; () banked
  1955   007C4C  6F93               	movwf	_ESTADO_APP& (0+255),b
  1956   007C4E                     l2902:
  1957                           
  1958                           ;LibreriasPIC/main_v2.c: 215:                 if ( PORTBbits.RB2 == 0 ) {
  1959   007C4E  B481               	btfsc	129,2,c	;volatile
  1960   007C50  EF2C  F03E         	goto	u2071
  1961   007C54  EF2E  F03E         	goto	u2070
  1962   007C58                     u2071:
  1963   007C58  EF39  F03F         	goto	l414
  1964   007C5C                     u2070:
  1965   007C5C                     
  1966                           ;LibreriasPIC/main_v2.c: 216:                     _delay((unsigned long)((10)*(8000000UL
      +                          /4000.0)));
  1967   007C5C  0E1A               	movlw	26
  1968   007C5E  0100               	movlb	0	; () banked
  1969   007C60  6F6D               	movwf	??_main& (0+255),b
  1970   007C62  0EF8               	movlw	248
  1971   007C64                     u2317:
  1972   007C64  2EE8               	decfsz	wreg,f,c
  1973   007C66  D7FE               	bra	u2317
  1974   007C68  2F6D               	decfsz	??_main& (0+255),f,b
  1975   007C6A  D7FC               	bra	u2317
  1976   007C6C  F000               	nop	
  1977   007C6E                     l463:
  1978   007C6E  A281               	btfss	129,1,c	;volatile
  1979   007C70  EF3C  F03E         	goto	u2081
  1980   007C74  EF3E  F03E         	goto	u2080
  1981   007C78                     u2081:
  1982   007C78  EF37  F03E         	goto	l463
  1983   007C7C                     u2080:
  1984   007C7C                     
  1985                           ;LibreriasPIC/main_v2.c: 218:                     Lcd_Clear();
  1986   007C7C  ECF0  F034         	call	_Lcd_Clear	;wreg free
  1987                           
  1988                           ;LibreriasPIC/main_v2.c: 219:                     Lcd_Set_Cursor(1, 1);
  1989   007C80  0E01               	movlw	1
  1990   007C82  6E04               	movwf	Lcd_Set_Cursor@b^0,c
  1991   007C84  0E01               	movlw	1
  1992   007C86  EC2E  F036         	call	_Lcd_Set_Cursor
  1993   007C8A                     
  1994                           ;LibreriasPIC/main_v2.c: 220:                     Lcd_Write_String("Relays mal!");
  1995   007C8A  0EA8               	movlw	low STR_26
  1996   007C8C  6E05               	movwf	Lcd_Write_String@a^0,c
  1997   007C8E  0E7F               	movlw	high STR_26
  1998   007C90  6E06               	movwf	(Lcd_Write_String@a+1)^0,c
  1999   007C92  ECDA  F036         	call	_Lcd_Write_String	;wreg free
  2000   007C96                     
  2001                           ;LibreriasPIC/main_v2.c: 221:                     Lcd_Set_Cursor(2, 1);
  2002   007C96  0E01               	movlw	1
  2003   007C98  6E04               	movwf	Lcd_Set_Cursor@b^0,c
  2004   007C9A  0E02               	movlw	2
  2005   007C9C  EC2E  F036         	call	_Lcd_Set_Cursor
  2006                           
  2007                           ;LibreriasPIC/main_v2.c: 222:                     Lcd_Write_String("Init test Buzzer");
  2008   007CA0  0EE5               	movlw	low STR_25
  2009   007CA2  6E05               	movwf	Lcd_Write_String@a^0,c
  2010   007CA4  0E7E               	movlw	high STR_25
  2011   007CA6  6E06               	movwf	(Lcd_Write_String@a+1)^0,c
  2012   007CA8  ECDA  F036         	call	_Lcd_Write_String	;wreg free
  2013   007CAC                     
  2014                           ;LibreriasPIC/main_v2.c: 223:                     _delay((unsigned long)((1000)*(8000000
      +                          UL/4000.0)));
  2015   007CAC  0E0B               	movlw	11
  2016   007CAE  0100               	movlb	0	; () banked
  2017   007CB0  6F6E               	movwf	(??_main+1)& (0+255),b
  2018   007CB2  0E26               	movlw	38
  2019   007CB4  6F6D               	movwf	??_main& (0+255),b
  2020   007CB6  0E5D               	movlw	93
  2021   007CB8                     u2327:
  2022   007CB8  2EE8               	decfsz	wreg,f,c
  2023   007CBA  D7FE               	bra	u2327
  2024   007CBC  2F6D               	decfsz	??_main& (0+255),f,b
  2025   007CBE  D7FC               	bra	u2327
  2026   007CC0  2F6E               	decfsz	(??_main+1)& (0+255),f,b
  2027   007CC2  D7FA               	bra	u2327
  2028   007CC4  D000               	nop2	
  2029   007CC6                     
  2030                           ;LibreriasPIC/main_v2.c: 224:                     ESTADO_APP = 5;
  2031   007CC6  0E05               	movlw	5
  2032   007CC8  0100               	movlb	0	; () banked
  2033   007CCA  6F93               	movwf	_ESTADO_APP& (0+255),b
  2034   007CCC  EF39  F03F         	goto	l2962
  2035   007CD0                     l2916:
  2036                           
  2037                           ; BSR set to: 0
  2038                           ;LibreriasPIC/main_v2.c: 230:                 Lcd_Clear();
  2039   007CD0  ECF0  F034         	call	_Lcd_Clear	;wreg free
  2040                           
  2041                           ;LibreriasPIC/main_v2.c: 231:                 Lcd_Set_Cursor(1, 1);
  2042   007CD4  0E01               	movlw	1
  2043   007CD6  6E04               	movwf	Lcd_Set_Cursor@b^0,c
  2044   007CD8  0E01               	movlw	1
  2045   007CDA  EC2E  F036         	call	_Lcd_Set_Cursor
  2046   007CDE                     
  2047                           ;LibreriasPIC/main_v2.c: 232:                 Lcd_Write_String("Relays func?...");
  2048   007CDE  0E18               	movlw	low STR_23
  2049   007CE0  6E05               	movwf	Lcd_Write_String@a^0,c
  2050   007CE2  0E7F               	movlw	high STR_23
  2051   007CE4  6E06               	movwf	(Lcd_Write_String@a+1)^0,c
  2052   007CE6  ECDA  F036         	call	_Lcd_Write_String	;wreg free
  2053   007CEA                     
  2054                           ;LibreriasPIC/main_v2.c: 235:                 if ( PORTBbits.RB0 == 0 ) {
  2055   007CEA  B081               	btfsc	129,0,c	;volatile
  2056   007CEC  EF7A  F03E         	goto	u2091
  2057   007CF0  EF7C  F03E         	goto	u2090
  2058   007CF4                     u2091:
  2059   007CF4  EF9F  F03E         	goto	l2926
  2060   007CF8                     u2090:
  2061   007CF8                     
  2062                           ;LibreriasPIC/main_v2.c: 236:                     _delay((unsigned long)((10)*(8000000UL
      +                          /4000.0)));
  2063   007CF8  0E1A               	movlw	26
  2064   007CFA  0100               	movlb	0	; () banked
  2065   007CFC  6F6D               	movwf	??_main& (0+255),b
  2066   007CFE  0EF8               	movlw	248
  2067   007D00                     u2337:
  2068   007D00  2EE8               	decfsz	wreg,f,c
  2069   007D02  D7FE               	bra	u2337
  2070   007D04  2F6D               	decfsz	??_main& (0+255),f,b
  2071   007D06  D7FC               	bra	u2337
  2072   007D08  F000               	nop	
  2073   007D0A                     l468:
  2074   007D0A  A081               	btfss	129,0,c	;volatile
  2075   007D0C  EF8A  F03E         	goto	u2101
  2076   007D10  EF8C  F03E         	goto	u2100
  2077   007D14                     u2101:
  2078   007D14  EF85  F03E         	goto	l468
  2079   007D18                     u2100:
  2080   007D18                     
  2081                           ;LibreriasPIC/main_v2.c: 238:                     LATEbits.LATE2 = ~LATEbits.LATE2;
  2082   007D18  B48D               	btfsc	141,2,c	;volatile
  2083   007D1A  EF91  F03E         	goto	u2111
  2084   007D1E  EF94  F03E         	goto	u2110
  2085   007D22                     u2111:
  2086   007D22  0E01               	movlw	1
  2087   007D24  EF95  F03E         	goto	u2116
  2088   007D28                     u2110:
  2089   007D28  0E00               	movlw	0
  2090   007D2A                     u2116:
  2091   007D2A  0AFF               	xorlw	255
  2092   007D2C  0100               	movlb	0	; () banked
  2093   007D2E  6F6D               	movwf	??_main& (0+255),b
  2094   007D30  476D               	rlncf	??_main& (0+255),f,b
  2095   007D32  476D               	rlncf	??_main& (0+255),f,b
  2096   007D34  508D               	movf	141,w,c	;volatile
  2097   007D36  196D               	xorwf	??_main& (0+255),w,b
  2098   007D38  0BFB               	andlw	-5
  2099   007D3A  196D               	xorwf	??_main& (0+255),w,b
  2100   007D3C  6E8D               	movwf	141,c	;volatile
  2101   007D3E                     l2926:
  2102                           
  2103                           ;LibreriasPIC/main_v2.c: 241:                 if ( PORTBbits.RB1 == 0 ) {
  2104   007D3E  B281               	btfsc	129,1,c	;volatile
  2105   007D40  EFA4  F03E         	goto	u2121
  2106   007D44  EFA6  F03E         	goto	u2120
  2107   007D48                     u2121:
  2108   007D48  EFDE  F03E         	goto	l2940
  2109   007D4C                     u2120:
  2110   007D4C                     
  2111                           ;LibreriasPIC/main_v2.c: 242:                     _delay((unsigned long)((10)*(8000000UL
      +                          /4000.0)));
  2112   007D4C  0E1A               	movlw	26
  2113   007D4E  0100               	movlb	0	; () banked
  2114   007D50  6F6D               	movwf	??_main& (0+255),b
  2115   007D52  0EF8               	movlw	248
  2116   007D54                     u2347:
  2117   007D54  2EE8               	decfsz	wreg,f,c
  2118   007D56  D7FE               	bra	u2347
  2119   007D58  2F6D               	decfsz	??_main& (0+255),f,b
  2120   007D5A  D7FC               	bra	u2347
  2121   007D5C  F000               	nop	
  2122   007D5E                     l472:
  2123   007D5E  A281               	btfss	129,1,c	;volatile
  2124   007D60  EFB4  F03E         	goto	u2131
  2125   007D64  EFB6  F03E         	goto	u2130
  2126   007D68                     u2131:
  2127   007D68  EFAF  F03E         	goto	l472
  2128   007D6C                     u2130:
  2129   007D6C                     
  2130                           ;LibreriasPIC/main_v2.c: 244:                     Lcd_Clear();
  2131   007D6C  ECF0  F034         	call	_Lcd_Clear	;wreg free
  2132                           
  2133                           ;LibreriasPIC/main_v2.c: 245:                     Lcd_Set_Cursor(1, 1);
  2134   007D70  0E01               	movlw	1
  2135   007D72  6E04               	movwf	Lcd_Set_Cursor@b^0,c
  2136   007D74  0E01               	movlw	1
  2137   007D76  EC2E  F036         	call	_Lcd_Set_Cursor
  2138   007D7A                     
  2139                           ;LibreriasPIC/main_v2.c: 246:                     Lcd_Write_String("Buzzer bien!");
  2140   007D7A  0E82               	movlw	low STR_29
  2141   007D7C  6E05               	movwf	Lcd_Write_String@a^0,c
  2142   007D7E  0E7F               	movlw	high STR_29
  2143   007D80  6E06               	movwf	(Lcd_Write_String@a+1)^0,c
  2144   007D82  ECDA  F036         	call	_Lcd_Write_String	;wreg free
  2145   007D86                     
  2146                           ;LibreriasPIC/main_v2.c: 247:                     Lcd_Set_Cursor(2, 1);
  2147   007D86  0E01               	movlw	1
  2148   007D88  6E04               	movwf	Lcd_Set_Cursor@b^0,c
  2149   007D8A  0E02               	movlw	2
  2150   007D8C  EC2E  F036         	call	_Lcd_Set_Cursor
  2151                           
  2152                           ;LibreriasPIC/main_v2.c: 248:                     Lcd_Write_String("Init test Buzzer");
  2153   007D90  0EE5               	movlw	low STR_25
  2154   007D92  6E05               	movwf	Lcd_Write_String@a^0,c
  2155   007D94  0E7E               	movlw	high STR_25
  2156   007D96  6E06               	movwf	(Lcd_Write_String@a+1)^0,c
  2157   007D98  ECDA  F036         	call	_Lcd_Write_String	;wreg free
  2158   007D9C                     
  2159                           ;LibreriasPIC/main_v2.c: 249:                     _delay((unsigned long)((1000)*(8000000
      +                          UL/4000.0)));
  2160   007D9C  0E0B               	movlw	11
  2161   007D9E  0100               	movlb	0	; () banked
  2162   007DA0  6F6E               	movwf	(??_main+1)& (0+255),b
  2163   007DA2  0E26               	movlw	38
  2164   007DA4  6F6D               	movwf	??_main& (0+255),b
  2165   007DA6  0E5D               	movlw	93
  2166   007DA8                     u2357:
  2167   007DA8  2EE8               	decfsz	wreg,f,c
  2168   007DAA  D7FE               	bra	u2357
  2169   007DAC  2F6D               	decfsz	??_main& (0+255),f,b
  2170   007DAE  D7FC               	bra	u2357
  2171   007DB0  2F6E               	decfsz	(??_main+1)& (0+255),f,b
  2172   007DB2  D7FA               	bra	u2357
  2173   007DB4  D000               	nop2	
  2174   007DB6                     
  2175                           ;LibreriasPIC/main_v2.c: 250:                     ESTADO_APP = 7;
  2176   007DB6  0E07               	movlw	7
  2177   007DB8  0100               	movlb	0	; () banked
  2178   007DBA  6F93               	movwf	_ESTADO_APP& (0+255),b
  2179   007DBC                     l2940:
  2180                           
  2181                           ;LibreriasPIC/main_v2.c: 253:                 if ( PORTBbits.RB2 == 0 ) {
  2182   007DBC  B481               	btfsc	129,2,c	;volatile
  2183   007DBE  EFE3  F03E         	goto	u2141
  2184   007DC2  EFE5  F03E         	goto	u2140
  2185   007DC6                     u2141:
  2186   007DC6  EF39  F03F         	goto	l414
  2187   007DCA                     u2140:
  2188   007DCA                     
  2189                           ;LibreriasPIC/main_v2.c: 254:                     _delay((unsigned long)((10)*(8000000UL
      +                          /4000.0)));
  2190   007DCA  0E1A               	movlw	26
  2191   007DCC  0100               	movlb	0	; () banked
  2192   007DCE  6F6D               	movwf	??_main& (0+255),b
  2193   007DD0  0EF8               	movlw	248
  2194   007DD2                     u2367:
  2195   007DD2  2EE8               	decfsz	wreg,f,c
  2196   007DD4  D7FE               	bra	u2367
  2197   007DD6  2F6D               	decfsz	??_main& (0+255),f,b
  2198   007DD8  D7FC               	bra	u2367
  2199   007DDA  F000               	nop	
  2200   007DDC                     l476:
  2201   007DDC  A281               	btfss	129,1,c	;volatile
  2202   007DDE  EFF3  F03E         	goto	u2151
  2203   007DE2  EFF5  F03E         	goto	u2150
  2204   007DE6                     u2151:
  2205   007DE6  EFEE  F03E         	goto	l476
  2206   007DEA                     u2150:
  2207   007DEA                     
  2208                           ;LibreriasPIC/main_v2.c: 256:                     Lcd_Clear();
  2209   007DEA  ECF0  F034         	call	_Lcd_Clear	;wreg free
  2210                           
  2211                           ;LibreriasPIC/main_v2.c: 257:                     Lcd_Set_Cursor(1, 1);
  2212   007DEE  0E01               	movlw	1
  2213   007DF0  6E04               	movwf	Lcd_Set_Cursor@b^0,c
  2214   007DF2  0E01               	movlw	1
  2215   007DF4  EC2E  F036         	call	_Lcd_Set_Cursor
  2216   007DF8                     
  2217                           ;LibreriasPIC/main_v2.c: 258:                     Lcd_Write_String("Buzzer mal!");
  2218   007DF8  0E9C               	movlw	low STR_31
  2219   007DFA  6E05               	movwf	Lcd_Write_String@a^0,c
  2220   007DFC  0E7F               	movlw	high STR_31
  2221   007DFE  6E06               	movwf	(Lcd_Write_String@a+1)^0,c
  2222   007E00  ECDA  F036         	call	_Lcd_Write_String	;wreg free
  2223   007E04                     
  2224                           ;LibreriasPIC/main_v2.c: 259:                     Lcd_Set_Cursor(2, 1);
  2225   007E04  0E01               	movlw	1
  2226   007E06  6E04               	movwf	Lcd_Set_Cursor@b^0,c
  2227   007E08  0E02               	movlw	2
  2228   007E0A  EC2E  F036         	call	_Lcd_Set_Cursor
  2229                           
  2230                           ;LibreriasPIC/main_v2.c: 260:                     Lcd_Write_String("Init test Buzzer");
  2231   007E0E  0EE5               	movlw	low STR_25
  2232   007E10  6E05               	movwf	Lcd_Write_String@a^0,c
  2233   007E12  0E7E               	movlw	high STR_25
  2234   007E14  6E06               	movwf	(Lcd_Write_String@a+1)^0,c
  2235   007E16  ECDA  F036         	call	_Lcd_Write_String	;wreg free
  2236   007E1A                     
  2237                           ;LibreriasPIC/main_v2.c: 261:                     _delay((unsigned long)((1000)*(8000000
      +                          UL/4000.0)));
  2238   007E1A  0E0B               	movlw	11
  2239   007E1C  0100               	movlb	0	; () banked
  2240   007E1E  6F6E               	movwf	(??_main+1)& (0+255),b
  2241   007E20  0E26               	movlw	38
  2242   007E22  6F6D               	movwf	??_main& (0+255),b
  2243   007E24  0E5D               	movlw	93
  2244   007E26                     u2377:
  2245   007E26  2EE8               	decfsz	wreg,f,c
  2246   007E28  D7FE               	bra	u2377
  2247   007E2A  2F6D               	decfsz	??_main& (0+255),f,b
  2248   007E2C  D7FC               	bra	u2377
  2249   007E2E  2F6E               	decfsz	(??_main+1)& (0+255),f,b
  2250   007E30  D7FA               	bra	u2377
  2251   007E32  D000               	nop2	
  2252   007E34                     
  2253                           ;LibreriasPIC/main_v2.c: 262:                     ESTADO_APP = 7;
  2254   007E34  0E07               	movlw	7
  2255   007E36  0100               	movlb	0	; () banked
  2256   007E38  6F93               	movwf	_ESTADO_APP& (0+255),b
  2257   007E3A  EF39  F03F         	goto	l2962
  2258   007E3E                     l2954:
  2259                           
  2260                           ; BSR set to: 0
  2261                           ;LibreriasPIC/main_v2.c: 272:                 Lcd_Clear();
  2262   007E3E  ECF0  F034         	call	_Lcd_Clear	;wreg free
  2263                           
  2264                           ;LibreriasPIC/main_v2.c: 273:                 Lcd_Set_Cursor(1, 1);
  2265   007E42  0E01               	movlw	1
  2266   007E44  6E04               	movwf	Lcd_Set_Cursor@b^0,c
  2267   007E46  0E01               	movlw	1
  2268   007E48  EC2E  F036         	call	_Lcd_Set_Cursor
  2269   007E4C                     
  2270                           ;LibreriasPIC/main_v2.c: 274:                 Lcd_Write_String("Felicidades");
  2271   007E4C  0EB4               	movlw	low STR_33
  2272   007E4E  6E05               	movwf	Lcd_Write_String@a^0,c
  2273   007E50  0E7F               	movlw	high STR_33
  2274   007E52  6E06               	movwf	(Lcd_Write_String@a+1)^0,c
  2275   007E54  ECDA  F036         	call	_Lcd_Write_String	;wreg free
  2276   007E58                     
  2277                           ;LibreriasPIC/main_v2.c: 275:                 Lcd_Set_Cursor(2, 1);
  2278   007E58  0E01               	movlw	1
  2279   007E5A  6E04               	movwf	Lcd_Set_Cursor@b^0,c
  2280   007E5C  0E02               	movlw	2
  2281   007E5E  EC2E  F036         	call	_Lcd_Set_Cursor
  2282                           
  2283                           ;LibreriasPIC/main_v2.c: 276:                 Lcd_Write_String("Test completado");
  2284   007E62  0E38               	movlw	low STR_34
  2285   007E64  6E05               	movwf	Lcd_Write_String@a^0,c
  2286   007E66  0E7F               	movlw	high STR_34
  2287   007E68  6E06               	movwf	(Lcd_Write_String@a+1)^0,c
  2288   007E6A  ECDA  F036         	call	_Lcd_Write_String	;wreg free
  2289                           
  2290                           ;LibreriasPIC/main_v2.c: 279:                 break;
  2291   007E6E  EF39  F03F         	goto	l2962
  2292   007E72                     l414:
  2293   007E72                     l2962:
  2294   007E72  0100               	movlb	0	; () banked
  2295   007E74  5193               	movf	_ESTADO_APP& (0+255),w,b
  2296   007E76  6F6D               	movwf	??_main& (0+255),b
  2297   007E78  6B6E               	clrf	(??_main+1)& (0+255),b
  2298                           
  2299                           ; Switch on 2 bytes has been partitioned into a top level switch of size 1, and 1 sub-sw
      +                          itches
  2300                           ; Switch size 1, requested type "simple"
  2301                           ; Number of cases is 1, Range of values is 0 to 0
  2302                           ; switch strategies available:
  2303                           ; Name         Instructions Cycles
  2304                           ; simple_byte            4     3 (average)
  2305                           ;	Chosen strategy is simple_byte
  2306   007E7A  516E               	movf	(??_main+1)& (0+255),w,b
  2307   007E7C  0A00               	xorlw	0	; case 0
  2308   007E7E  B4D8               	btfsc	status,2,c
  2309   007E80  EF44  F03F         	goto	l2992
  2310   007E84  EF39  F03F         	goto	l2962
  2311   007E88                     l2992:
  2312                           
  2313                           ; BSR set to: 0
  2314                           ; Switch size 1, requested type "simple"
  2315                           ; Number of cases is 6, Range of values is 1 to 7
  2316                           ; switch strategies available:
  2317                           ; Name         Instructions Cycles
  2318                           ; simple_byte           19    10 (average)
  2319                           ;	Chosen strategy is simple_byte
  2320   007E88  516D               	movf	??_main& (0+255),w,b
  2321   007E8A  0A01               	xorlw	1	; case 1
  2322   007E8C  B4D8               	btfsc	status,2,c
  2323   007E8E  EFE6  F03A         	goto	l2702
  2324   007E92  0A03               	xorlw	3	; case 2
  2325   007E94  B4D8               	btfsc	status,2,c
  2326   007E96  EF78  F03B         	goto	l2752
  2327   007E9A  0A01               	xorlw	1	; case 3
  2328   007E9C  B4D8               	btfsc	status,2,c
  2329   007E9E  EF8D  F03C         	goto	l2818
  2330   007EA2  0A07               	xorlw	7	; case 4
  2331   007EA4  B4D8               	btfsc	status,2,c
  2332   007EA6  EFA2  F03D         	goto	l2878
  2333   007EAA  0A01               	xorlw	1	; case 5
  2334   007EAC  B4D8               	btfsc	status,2,c
  2335   007EAE  EF68  F03E         	goto	l2916
  2336   007EB2  0A02               	xorlw	2	; case 7
  2337   007EB4  B4D8               	btfsc	status,2,c
  2338   007EB6  EF1F  F03F         	goto	l2954
  2339   007EBA  EF39  F03F         	goto	l2962
  2340   007EBE  EF00  F000         	goto	start
  2341   007EC2                     __end_of_main:
  2342                           	callstack 0
  2343                           
  2344 ;; *************** function _sprintf *****************
  2345 ;; Defined at:
  2346 ;;		line 9 in file "C:\Program Files\Microchip\xc8\v2.40\pic\sources\c99\common\nf_sprintf.c"
  2347 ;; Parameters:    Size  Location     Type
  2348 ;;  s               2   89[COMRAM] PTR unsigned char 
  2349 ;;		 -> main@strI(20), 
  2350 ;;  fmt             2   91[COMRAM] PTR const unsigned char 
  2351 ;;		 -> STR_5(3), 
  2352 ;; Auto vars:     Size  Location     Type
  2353 ;;  f              11    2[BANK0 ] struct _IO_FILE
  2354 ;;  ap              2    0[BANK0 ] PTR void [1]
  2355 ;;		 -> ?_sprintf(2), 
  2356 ;;  ret             2    0        int 
  2357 ;; Return value:  Size  Location     Type
  2358 ;;                  2   89[COMRAM] int 
  2359 ;; Registers used:
  2360 ;;		wreg, fsr1l, fsr1h, fsr2l, fsr2h, status,2, status,0, tblptrl, tblptrh, tblptru, cstack
  2361 ;; Tracked objects:
  2362 ;;		On entry : 0/0
  2363 ;;		On exit  : 0/0
  2364 ;;		Unchanged: 0/0
  2365 ;; Data sizes:     COMRAM   BANK0   BANK1   BANK2   BANK3   BANK4   BANK5   BANK6   BANK7
  2366 ;;      Params:         6       0       0       0       0       0       0       0       0
  2367 ;;      Locals:         0      13       0       0       0       0       0       0       0
  2368 ;;      Temps:          0       0       0       0       0       0       0       0       0
  2369 ;;      Totals:         6      13       0       0       0       0       0       0       0
  2370 ;;Total ram usage:       19 bytes
  2371 ;; Hardware stack levels used: 1
  2372 ;; Hardware stack levels required when called: 7
  2373 ;; This function calls:
  2374 ;;		_vfprintf
  2375 ;; This function is called by:
  2376 ;;		_main
  2377 ;; This function uses a non-reentrant model
  2378 ;;
  2379                           
  2380                           	psect	text1
  2381   006BAE                     __ptext1:
  2382                           	callstack 0
  2383   006BAE                     _sprintf:
  2384                           	callstack 23
  2385   006BAE  0E5E               	movlw	low (?_sprintf+4)
  2386   006BB0  0100               	movlb	0	; () banked
  2387   006BB2  6F60               	movwf	sprintf@ap& (0+255),b
  2388   006BB4  0E00               	movlw	high (?_sprintf+4)
  2389   006BB6  6F61               	movwf	(sprintf@ap+1)& (0+255),b
  2390   006BB8  C05A  F062         	movff	sprintf@s,sprintf@f
  2391   006BBC  C05B  F063         	movff	sprintf@s+1,sprintf@f+1
  2392   006BC0                     
  2393                           ; BSR set to: 0
  2394   006BC0  0E00               	movlw	0
  2395   006BC2  6F66               	movwf	(sprintf@f+4)& (0+255),b
  2396   006BC4  0E00               	movlw	0
  2397   006BC6  6F65               	movwf	(sprintf@f+3)& (0+255),b
  2398   006BC8                     
  2399                           ; BSR set to: 0
  2400   006BC8  0E00               	movlw	0
  2401   006BCA  6F6C               	movwf	(sprintf@f+10)& (0+255),b
  2402   006BCC  0E00               	movlw	0
  2403   006BCE  6F6B               	movwf	(sprintf@f+9)& (0+255),b
  2404   006BD0                     
  2405                           ; BSR set to: 0
  2406   006BD0  0E62               	movlw	low sprintf@f
  2407   006BD2  6E52               	movwf	vfprintf@fp^0,c
  2408   006BD4  0E00               	movlw	high sprintf@f
  2409   006BD6  6E53               	movwf	(vfprintf@fp+1)^0,c
  2410   006BD8  C05C  F054         	movff	sprintf@fmt,vfprintf@fmt
  2411   006BDC  C05D  F055         	movff	sprintf@fmt+1,vfprintf@fmt+1
  2412   006BE0  0E60               	movlw	low sprintf@ap
  2413   006BE2  6E56               	movwf	vfprintf@ap^0,c
  2414   006BE4  0E00               	movlw	high sprintf@ap
  2415   006BE6  6E57               	movwf	(vfprintf@ap+1)^0,c
  2416   006BE8  ECB0  F035         	call	_vfprintf	;wreg free
  2417   006BEC  0100               	movlb	0	; () banked
  2418   006BEE  5165               	movf	(sprintf@f+3)& (0+255),w,b
  2419   006BF0  245A               	addwf	sprintf@s^0,w,c
  2420   006BF2  6ED9               	movwf	fsr2l,c
  2421   006BF4  5166               	movf	(sprintf@f+4)& (0+255),w,b
  2422   006BF6  205B               	addwfc	(sprintf@s+1)^0,w,c
  2423   006BF8  6EDA               	movwf	fsr2h,c
  2424   006BFA  0E00               	movlw	0
  2425   006BFC  6EDF               	movwf	indf2,c
  2426   006BFE                     
  2427                           ; BSR set to: 0
  2428   006BFE  0012               	return		;funcret
  2429   006C00                     __end_of_sprintf:
  2430                           	callstack 0
  2431                           
  2432 ;; *************** function _vfprintf *****************
  2433 ;; Defined at:
  2434 ;;		line 1520 in file "C:\Program Files\Microchip\xc8\v2.40\pic\sources\c99\common\doprnt.c"
  2435 ;; Parameters:    Size  Location     Type
  2436 ;;  fp              2   81[COMRAM] PTR struct _IO_FILE
  2437 ;;		 -> sprintf@f(11), 
  2438 ;;  fmt             2   83[COMRAM] PTR const unsigned char 
  2439 ;;		 -> STR_5(3), 
  2440 ;;  ap              2   85[COMRAM] PTR PTR void 
  2441 ;;		 -> sprintf@ap(2), 
  2442 ;; Auto vars:     Size  Location     Type
  2443 ;;  cfmt            2   87[COMRAM] PTR unsigned char 
  2444 ;;		 -> STR_5(3), 
  2445 ;; Return value:  Size  Location     Type
  2446 ;;                  2   81[COMRAM] int 
  2447 ;; Registers used:
  2448 ;;		wreg, fsr1l, fsr1h, fsr2l, fsr2h, status,2, status,0, tblptrl, tblptrh, tblptru, cstack
  2449 ;; Tracked objects:
  2450 ;;		On entry : 0/0
  2451 ;;		On exit  : 0/0
  2452 ;;		Unchanged: 0/0
  2453 ;; Data sizes:     COMRAM   BANK0   BANK1   BANK2   BANK3   BANK4   BANK5   BANK6   BANK7
  2454 ;;      Params:         6       0       0       0       0       0       0       0       0
  2455 ;;      Locals:         2       0       0       0       0       0       0       0       0
  2456 ;;      Temps:          0       0       0       0       0       0       0       0       0
  2457 ;;      Totals:         8       0       0       0       0       0       0       0       0
  2458 ;;Total ram usage:        8 bytes
  2459 ;; Hardware stack levels used: 1
  2460 ;; Hardware stack levels required when called: 6
  2461 ;; This function calls:
  2462 ;;		_vfpfcnvrt
  2463 ;; This function is called by:
  2464 ;;		_sprintf
  2465 ;; This function uses a non-reentrant model
  2466 ;;
  2467                           
  2468                           	psect	text2
  2469   006B60                     __ptext2:
  2470                           	callstack 0
  2471   006B60                     _vfprintf:
  2472                           	callstack 23
  2473   006B60                     
  2474                           ;C:\Program Files\Microchip\xc8\v2.40\pic\sources\c99\common\doprnt.c: 1520: int vfprint
      +                          f(FILE *fp, const char *fmt, va_list ap);C:\Program Files\Microchip\xc8\v2.40\pic\source
      +                          s\c99\common\doprnt.c: 1521: {;C:\Program Files\Microchip\xc8\v2.40\pic\sources\c99\comm
      +                          on\doprnt.c: 1523:     char *cfmt;;C:\Program Files\Microchip\xc8\v2.40\pic\sources\c99\
      +                          common\doprnt.c: 1525:     cfmt = (char *)fmt;
  2475   006B60  C054  F058         	movff	vfprintf@fmt,vfprintf@cfmt
  2476   006B64  C055  F059         	movff	vfprintf@fmt+1,vfprintf@cfmt+1
  2477                           
  2478                           ;C:\Program Files\Microchip\xc8\v2.40\pic\sources\c99\common\doprnt.c: 1529:     while (
      +                          *cfmt) {
  2479   006B68  EFC4  F035         	goto	l2468
  2480   006B6C                     l2466:
  2481                           
  2482                           ;C:\Program Files\Microchip\xc8\v2.40\pic\sources\c99\common\doprnt.c: 1533:    vfpfcnvr
      +                          t(fp, &cfmt, ap);
  2483   006B6C  C052  F040         	movff	vfprintf@fp,vfpfcnvrt@fp
  2484   006B70  C053  F041         	movff	vfprintf@fp+1,vfpfcnvrt@fp+1
  2485   006B74  0E58               	movlw	low vfprintf@cfmt
  2486   006B76  6E42               	movwf	vfpfcnvrt@fmt^0,c
  2487   006B78  0E00               	movlw	high vfprintf@cfmt
  2488   006B7A  6E43               	movwf	(vfpfcnvrt@fmt+1)^0,c
  2489   006B7C  C056  F044         	movff	vfprintf@ap,vfpfcnvrt@ap
  2490   006B80  C057  F045         	movff	vfprintf@ap+1,vfpfcnvrt@ap+1
  2491   006B84  EC7E  F037         	call	_vfpfcnvrt	;wreg free
  2492   006B88                     l2468:
  2493                           
  2494                           ;C:\Program Files\Microchip\xc8\v2.40\pic\sources\c99\common\doprnt.c: 1529:     while (
      +                          *cfmt) {
  2495   006B88  C058  FFF6         	movff	vfprintf@cfmt,tblptrl
  2496   006B8C  C059  FFF7         	movff	vfprintf@cfmt+1,tblptrh
  2497   006B90                     	if	0	;tblptru may be non-zero
  2498   006B90                     	endif
  2499   006B90                     	if	0	;tblptru may be non-zero
  2500   006B90                     	endif
  2501   006B90  0008               	tblrd		*
  2502   006B92  50F5               	movf	tablat,w,c
  2503   006B94  0900               	iorlw	0
  2504   006B96  A4D8               	btfss	status,2,c
  2505   006B98  EFD0  F035         	goto	u1601
  2506   006B9C  EFD2  F035         	goto	u1600
  2507   006BA0                     u1601:
  2508   006BA0  EFB6  F035         	goto	l2466
  2509   006BA4                     u1600:
  2510   006BA4                     
  2511                           ;C:\Program Files\Microchip\xc8\v2.40\pic\sources\c99\common\doprnt.c: 1538:  return 0;
  2512   006BA4  0E00               	movlw	0
  2513   006BA6  6E53               	movwf	(?_vfprintf+1)^0,c
  2514   006BA8  0E00               	movlw	0
  2515   006BAA  6E52               	movwf	?_vfprintf^0,c
  2516   006BAC  0012               	return		;funcret
  2517   006BAE                     __end_of_vfprintf:
  2518                           	callstack 0
  2519                           
  2520 ;; *************** function _vfpfcnvrt *****************
  2521 ;; Defined at:
  2522 ;;		line 1007 in file "C:\Program Files\Microchip\xc8\v2.40\pic\sources\c99\common\doprnt.c"
  2523 ;; Parameters:    Size  Location     Type
  2524 ;;  fp              2   63[COMRAM] PTR struct _IO_FILE
  2525 ;;		 -> sprintf@f(11), 
  2526 ;;  fmt             2   65[COMRAM] PTR PTR unsigned char 
  2527 ;;		 -> vfprintf@cfmt(2), 
  2528 ;;  ap              2   67[COMRAM] PTR PTR void 
  2529 ;;		 -> sprintf@ap(2), 
  2530 ;; Auto vars:     Size  Location     Type
  2531 ;;  convarg         8   71[COMRAM] struct .
  2532 ;;  cp              2   79[COMRAM] PTR unsigned char 
  2533 ;;		 -> STR_5(3), 
  2534 ;;  i               2    0        int 
  2535 ;;  done            2    0        int 
  2536 ;;  c               1    0        unsigned char 
  2537 ;; Return value:  Size  Location     Type
  2538 ;;                  1    wreg      void 
  2539 ;; Registers used:
  2540 ;;		wreg, fsr1l, fsr1h, fsr2l, fsr2h, status,2, status,0, tblptrl, tblptrh, tblptru, cstack
  2541 ;; Tracked objects:
  2542 ;;		On entry : 0/0
  2543 ;;		On exit  : 0/0
  2544 ;;		Unchanged: 0/0
  2545 ;; Data sizes:     COMRAM   BANK0   BANK1   BANK2   BANK3   BANK4   BANK5   BANK6   BANK7
  2546 ;;      Params:         6       0       0       0       0       0       0       0       0
  2547 ;;      Locals:        10       0       0       0       0       0       0       0       0
  2548 ;;      Temps:          2       0       0       0       0       0       0       0       0
  2549 ;;      Totals:        18       0       0       0       0       0       0       0       0
  2550 ;;Total ram usage:       18 bytes
  2551 ;; Hardware stack levels used: 1
  2552 ;; Hardware stack levels required when called: 5
  2553 ;; This function calls:
  2554 ;;		_dtoa
  2555 ;;		_fputc
  2556 ;; This function is called by:
  2557 ;;		_vfprintf
  2558 ;; This function uses a non-reentrant model
  2559 ;;
  2560                           
  2561                           	psect	text3
  2562   006EFC                     __ptext3:
  2563                           	callstack 0
  2564   006EFC                     _vfpfcnvrt:
  2565                           	callstack 23
  2566   006EFC                     
  2567                           ;C:\Program Files\Microchip\xc8\v2.40\pic\sources\c99\common\doprnt.c: 1007: vfpfcnvrt(F
      +                          ILE *fp, char *fmt[], va_list ap);C:\Program Files\Microchip\xc8\v2.40\pic\sources\c99\c
      +                          ommon\doprnt.c: 1008: {;C:\Program Files\Microchip\xc8\v2.40\pic\sources\c99\common\dopr
      +                          nt.c: 1009:     char c, *cp;;C:\Program Files\Microchip\xc8\v2.40\pic\sources\c99\common
      +                          \doprnt.c: 1010:     int done, i;;C:\Program Files\Microchip\xc8\v2.40\pic\sources\c99\c
      +                          ommon\doprnt.c: 1016:  } convarg;;C:\Program Files\Microchip\xc8\v2.40\pic\sources\c99\c
      +                          ommon\doprnt.c: 1019:     if ((*fmt)[0] == '%') {
  2568   006EFC  C042  FFD9         	movff	vfpfcnvrt@fmt,fsr2l
  2569   006F00  C043  FFDA         	movff	vfpfcnvrt@fmt+1,fsr2h
  2570   006F04  CFDE FFF6          	movff	postinc2,tblptrl
  2571   006F08  CFDD FFF7          	movff	postdec2,tblptrh
  2572   006F0C                     	if	0	;tblptru may be non-zero
  2573   006F0C                     	endif
  2574   006F0C                     	if	0	;tblptru may be non-zero
  2575   006F0C                     	endif
  2576   006F0C  0008               	tblrd		*
  2577   006F0E  50F5               	movf	tablat,w,c
  2578   006F10  0A25               	xorlw	37
  2579   006F12  A4D8               	btfss	status,2,c
  2580   006F14  EF8E  F037         	goto	u1571
  2581   006F18  EF90  F037         	goto	u1570
  2582   006F1C                     u1571:
  2583   006F1C  EF10  F038         	goto	l2430
  2584   006F20                     u1570:
  2585   006F20                     
  2586                           ;C:\Program Files\Microchip\xc8\v2.40\pic\sources\c99\common\doprnt.c: 1020:         ++*
      +                          fmt;
  2587   006F20  C042  FFD9         	movff	vfpfcnvrt@fmt,fsr2l
  2588   006F24  C043  FFDA         	movff	vfpfcnvrt@fmt+1,fsr2h
  2589   006F28  2ADE               	incf	postinc2,f,c
  2590   006F2A  0E00               	movlw	0
  2591   006F2C  22DD               	addwfc	postdec2,f,c
  2592   006F2E                     
  2593                           ;C:\Program Files\Microchip\xc8\v2.40\pic\sources\c99\common\doprnt.c: 1022:         fla
      +                          gs = width = 0;
  2594   006F2E  0E00               	movlw	0
  2595   006F30  0100               	movlb	0	; () banked
  2596   006F32  6F8C               	movwf	(_width+1)& (0+255),b
  2597   006F34  0E00               	movlw	0
  2598   006F36  6F8B               	movwf	_width& (0+255),b
  2599   006F38  C08B  F08F         	movff	_width,_flags
  2600   006F3C                     
  2601                           ; BSR set to: 0
  2602                           ;C:\Program Files\Microchip\xc8\v2.40\pic\sources\c99\common\doprnt.c: 1023:         pre
      +                          c = -1;
  2603   006F3C  698D               	setf	_prec& (0+255),b
  2604   006F3E  698E               	setf	(_prec+1)& (0+255),b
  2605   006F40                     
  2606                           ; BSR set to: 0
  2607                           ;C:\Program Files\Microchip\xc8\v2.40\pic\sources\c99\common\doprnt.c: 1117:   cp = *fmt
      +                          ;
  2608   006F40  C042  FFD9         	movff	vfpfcnvrt@fmt,fsr2l
  2609   006F44  C043  FFDA         	movff	vfpfcnvrt@fmt+1,fsr2h
  2610   006F48  CFDE F050          	movff	postinc2,vfpfcnvrt@cp
  2611   006F4C  CFDD F051          	movff	postdec2,vfpfcnvrt@cp+1
  2612   006F50                     
  2613                           ; BSR set to: 0
  2614                           ;C:\Program Files\Microchip\xc8\v2.40\pic\sources\c99\common\doprnt.c: 1187:   if (*cp =
      +                          = 'd' || *cp == 'i') {
  2615   006F50  C050  FFF6         	movff	vfpfcnvrt@cp,tblptrl
  2616   006F54  C051  FFF7         	movff	vfpfcnvrt@cp+1,tblptrh
  2617   006F58                     	if	0	;tblptru may be non-zero
  2618   006F58                     	endif
  2619   006F58                     	if	0	;tblptru may be non-zero
  2620   006F58                     	endif
  2621   006F58  0008               	tblrd		*
  2622   006F5A  50F5               	movf	tablat,w,c
  2623   006F5C  0A64               	xorlw	100
  2624   006F5E  B4D8               	btfsc	status,2,c
  2625   006F60  EFB4  F037         	goto	u1581
  2626   006F64  EFB6  F037         	goto	u1580
  2627   006F68                     u1581:
  2628   006F68  EFC4  F037         	goto	l2420
  2629   006F6C                     u1580:
  2630   006F6C                     
  2631                           ; BSR set to: 0
  2632   006F6C  C050  FFF6         	movff	vfpfcnvrt@cp,tblptrl
  2633   006F70  C051  FFF7         	movff	vfpfcnvrt@cp+1,tblptrh
  2634   006F74                     	if	0	;tblptru may be non-zero
  2635   006F74                     	endif
  2636   006F74                     	if	0	;tblptru may be non-zero
  2637   006F74                     	endif
  2638   006F74  0008               	tblrd		*
  2639   006F76  50F5               	movf	tablat,w,c
  2640   006F78  0A69               	xorlw	105
  2641   006F7A  A4D8               	btfss	status,2,c
  2642   006F7C  EFC2  F037         	goto	u1591
  2643   006F80  EFC4  F037         	goto	u1590
  2644   006F84                     u1591:
  2645   006F84  EF07  F038         	goto	l2426
  2646   006F88                     u1590:
  2647   006F88                     l2420:
  2648                           
  2649                           ; BSR set to: 0
  2650                           ;C:\Program Files\Microchip\xc8\v2.40\pic\sources\c99\common\doprnt.c: 1230:    convarg.
      +                          ll = (long long)(int)(*(int *)__va_arg(*(int **)ap, (int)0));
  2651   006F88  C044  FFD9         	movff	vfpfcnvrt@ap,fsr2l
  2652   006F8C  C045  FFDA         	movff	vfpfcnvrt@ap+1,fsr2h
  2653   006F90  CFDF F046          	movff	indf2,??_vfpfcnvrt
  2654   006F94  0E02               	movlw	2
  2655   006F96  26DE               	addwf	postinc2,f,c
  2656   006F98  CFDF F047          	movff	indf2,??_vfpfcnvrt+1
  2657   006F9C  0E00               	movlw	0
  2658   006F9E  22DD               	addwfc	postdec2,f,c
  2659   006FA0  C046  FFD9         	movff	??_vfpfcnvrt,fsr2l
  2660   006FA4  C047  FFDA         	movff	??_vfpfcnvrt+1,fsr2h
  2661   006FA8  CFDE F048          	movff	postinc2,vfpfcnvrt@convarg
  2662   006FAC  CFDD F049          	movff	postdec2,vfpfcnvrt@convarg+1
  2663   006FB0  0E00               	movlw	0
  2664   006FB2  BE49               	btfsc	(vfpfcnvrt@convarg+1)^0,7,c
  2665   006FB4  0EFF               	movlw	-1
  2666   006FB6  6E4A               	movwf	(vfpfcnvrt@convarg+2)^0,c
  2667   006FB8  6E4B               	movwf	(vfpfcnvrt@convarg+3)^0,c
  2668   006FBA  6E4C               	movwf	(vfpfcnvrt@convarg+4)^0,c
  2669   006FBC  6E4D               	movwf	(vfpfcnvrt@convarg+5)^0,c
  2670   006FBE  6E4E               	movwf	(vfpfcnvrt@convarg+6)^0,c
  2671   006FC0  6E4F               	movwf	(vfpfcnvrt@convarg+7)^0,c
  2672                           
  2673                           ;C:\Program Files\Microchip\xc8\v2.40\pic\sources\c99\common\doprnt.c: 1232:    *fmt = c
      +                          p+1;
  2674   006FC2  0E01               	movlw	1
  2675   006FC4  2450               	addwf	vfpfcnvrt@cp^0,w,c
  2676   006FC6  6E46               	movwf	??_vfpfcnvrt^0,c
  2677   006FC8  0E00               	movlw	0
  2678   006FCA  2051               	addwfc	(vfpfcnvrt@cp+1)^0,w,c
  2679   006FCC  6E47               	movwf	(??_vfpfcnvrt+1)^0,c
  2680   006FCE  C042  FFD9         	movff	vfpfcnvrt@fmt,fsr2l
  2681   006FD2  C043  FFDA         	movff	vfpfcnvrt@fmt+1,fsr2h
  2682   006FD6  C046  FFDE         	movff	??_vfpfcnvrt,postinc2
  2683   006FDA  C047  FFDD         	movff	??_vfpfcnvrt+1,postdec2
  2684   006FDE                     
  2685                           ; BSR set to: 0
  2686                           ;C:\Program Files\Microchip\xc8\v2.40\pic\sources\c99\common\doprnt.c: 1233:    return (
      +                          void) dtoa(fp, convarg.ll);;	Return value of _vfpfcnvrt is never used
  2687   006FDE  C040  F01D         	movff	vfpfcnvrt@fp,dtoa@fp
  2688   006FE2  C041  F01E         	movff	vfpfcnvrt@fp+1,dtoa@fp+1
  2689   006FE6  C048  F01F         	movff	vfpfcnvrt@convarg,dtoa@d
  2690   006FEA  C049  F020         	movff	vfpfcnvrt@convarg+1,dtoa@d+1
  2691   006FEE  C04A  F021         	movff	vfpfcnvrt@convarg+2,dtoa@d+2
  2692   006FF2  C04B  F022         	movff	vfpfcnvrt@convarg+3,dtoa@d+3
  2693   006FF6  C04C  F023         	movff	vfpfcnvrt@convarg+4,dtoa@d+4
  2694   006FFA  C04D  F024         	movff	vfpfcnvrt@convarg+5,dtoa@d+5
  2695   006FFE  C04E  F025         	movff	vfpfcnvrt@convarg+6,dtoa@d+6
  2696   007002  C04F  F026         	movff	vfpfcnvrt@convarg+7,dtoa@d+7
  2697   007006  EC9B  F039         	call	_dtoa	;wreg free
  2698   00700A  EF24  F038         	goto	l1221
  2699   00700E                     l2426:
  2700                           
  2701                           ;C:\Program Files\Microchip\xc8\v2.40\pic\sources\c99\common\doprnt.c: 1509:         ++*
      +                          fmt;
  2702   00700E  C042  FFD9         	movff	vfpfcnvrt@fmt,fsr2l
  2703   007012  C043  FFDA         	movff	vfpfcnvrt@fmt+1,fsr2h
  2704   007016  2ADE               	incf	postinc2,f,c
  2705   007018  0E00               	movlw	0
  2706   00701A  22DD               	addwfc	postdec2,f,c
  2707   00701C  EF24  F038         	goto	l1221
  2708   007020                     l2430:
  2709                           
  2710                           ;C:\Program Files\Microchip\xc8\v2.40\pic\sources\c99\common\doprnt.c: 1514:     fputc((
      +                          int)(*fmt)[0], fp);
  2711   007020  C042  FFD9         	movff	vfpfcnvrt@fmt,fsr2l
  2712   007024  C043  FFDA         	movff	vfpfcnvrt@fmt+1,fsr2h
  2713   007028  CFDE FFF6          	movff	postinc2,tblptrl
  2714   00702C  CFDD FFF7          	movff	postdec2,tblptrh
  2715   007030                     	if	0	;tblptru may be non-zero
  2716   007030                     	endif
  2717   007030                     	if	0	;tblptru may be non-zero
  2718   007030                     	endif
  2719   007030  0008               	tblrd		*
  2720   007032  50F5               	movf	tablat,w,c
  2721   007034  6E02               	movwf	fputc@c^0,c
  2722   007036  6A03               	clrf	(fputc@c+1)^0,c
  2723   007038  C040  F004         	movff	vfpfcnvrt@fp,fputc@fp
  2724   00703C  C041  F005         	movff	vfpfcnvrt@fp+1,fputc@fp+1
  2725   007040  EC19  F037         	call	_fputc	;wreg free
  2726   007044  EF07  F038         	goto	l2426
  2727   007048                     l1221:
  2728   007048  0012               	return		;funcret
  2729   00704A                     __end_of_vfpfcnvrt:
  2730                           	callstack 0
  2731                           
  2732 ;; *************** function _dtoa *****************
  2733 ;; Defined at:
  2734 ;;		line 443 in file "C:\Program Files\Microchip\xc8\v2.40\pic\sources\c99\common\doprnt.c"
  2735 ;; Parameters:    Size  Location     Type
  2736 ;;  fp              2   28[COMRAM] PTR struct _IO_FILE
  2737 ;;		 -> sprintf@f(11), 
  2738 ;;  d               8   30[COMRAM] long long 
  2739 ;; Auto vars:     Size  Location     Type
  2740 ;;  n               8   52[COMRAM] long long 
  2741 ;;  i               2   60[COMRAM] int 
  2742 ;;  w               2   50[COMRAM] int 
  2743 ;;  p               2   48[COMRAM] int 
  2744 ;;  s               1   62[COMRAM] unsigned char 
  2745 ;; Return value:  Size  Location     Type
  2746 ;;                  1    wreg      void 
  2747 ;; Registers used:
  2748 ;;		wreg, fsr1l, fsr1h, fsr2l, fsr2h, status,2, status,0, cstack
  2749 ;; Tracked objects:
  2750 ;;		On entry : 0/0
  2751 ;;		On exit  : 0/0
  2752 ;;		Unchanged: 0/0
  2753 ;; Data sizes:     COMRAM   BANK0   BANK1   BANK2   BANK3   BANK4   BANK5   BANK6   BANK7
  2754 ;;      Params:        10       0       0       0       0       0       0       0       0
  2755 ;;      Locals:        17       0       0       0       0       0       0       0       0
  2756 ;;      Temps:          8       0       0       0       0       0       0       0       0
  2757 ;;      Totals:        35       0       0       0       0       0       0       0       0
  2758 ;;Total ram usage:       35 bytes
  2759 ;; Hardware stack levels used: 1
  2760 ;; Hardware stack levels required when called: 4
  2761 ;; This function calls:
  2762 ;;		___aodiv
  2763 ;;		___aomod
  2764 ;;		_abs
  2765 ;;		_pad
  2766 ;; This function is called by:
  2767 ;;		_vfpfcnvrt
  2768 ;; This function uses a non-reentrant model
  2769 ;;
  2770                           
  2771                           	psect	text4
  2772   007336                     __ptext4:
  2773                           	callstack 0
  2774   007336                     _dtoa:
  2775                           	callstack 23
  2776   007336                     
  2777                           ;C:\Program Files\Microchip\xc8\v2.40\pic\sources\c99\common\doprnt.c: 443: static void 
      +                          dtoa(FILE *fp, long long d);C:\Program Files\Microchip\xc8\v2.40\pic\sources\c99\common\
      +                          doprnt.c: 444: {;C:\Program Files\Microchip\xc8\v2.40\pic\sources\c99\common\doprnt.c: 4
      +                          45:  char s;;C:\Program Files\Microchip\xc8\v2.40\pic\sources\c99\common\doprnt.c: 446: 
      +                              int i, p, w;;C:\Program Files\Microchip\xc8\v2.40\pic\sources\c99\common\doprnt.c: 4
      +                          47:     long long n;;C:\Program Files\Microchip\xc8\v2.40\pic\sources\c99\common\doprnt.
      +                          c: 450:     n = d;
  2778   007336  C01F  F035         	movff	dtoa@d,dtoa@n
  2779   00733A  C020  F036         	movff	dtoa@d+1,dtoa@n+1
  2780   00733E  C021  F037         	movff	dtoa@d+2,dtoa@n+2
  2781   007342  C022  F038         	movff	dtoa@d+3,dtoa@n+3
  2782   007346  C023  F039         	movff	dtoa@d+4,dtoa@n+4
  2783   00734A  C024  F03A         	movff	dtoa@d+5,dtoa@n+5
  2784   00734E  C025  F03B         	movff	dtoa@d+6,dtoa@n+6
  2785   007352  C026  F03C         	movff	dtoa@d+7,dtoa@n+7
  2786   007356                     
  2787                           ;C:\Program Files\Microchip\xc8\v2.40\pic\sources\c99\common\doprnt.c: 451:     s = n < 
      +                          0 ? 1 : 0;
  2788   007356  BE3C               	btfsc	(dtoa@n+7)^0,7,c
  2789   007358  EFB0  F039         	goto	u1431
  2790   00735C  EFB3  F039         	goto	u1430
  2791   007360                     u1431:
  2792   007360  0E01               	movlw	1
  2793   007362  EFB4  F039         	goto	u1440
  2794   007366                     u1430:
  2795   007366  0E00               	movlw	0
  2796   007368                     u1440:
  2797   007368  6E3F               	movwf	dtoa@s^0,c
  2798   00736A                     
  2799                           ;C:\Program Files\Microchip\xc8\v2.40\pic\sources\c99\common\doprnt.c: 452:     if (s) {
  2800   00736A  503F               	movf	dtoa@s^0,w,c
  2801   00736C  B4D8               	btfsc	status,2,c
  2802   00736E  EFBB  F039         	goto	u1451
  2803   007372  EFBD  F039         	goto	u1450
  2804   007376                     u1451:
  2805   007376  EFCD  F039         	goto	l2338
  2806   00737A                     u1450:
  2807   00737A                     
  2808                           ;C:\Program Files\Microchip\xc8\v2.40\pic\sources\c99\common\doprnt.c: 453:         n = 
      +                          -n;
  2809   00737A  1E3C               	comf	(dtoa@n+7)^0,f,c
  2810   00737C  1E3B               	comf	(dtoa@n+6)^0,f,c
  2811   00737E  1E3A               	comf	(dtoa@n+5)^0,f,c
  2812   007380  1E39               	comf	(dtoa@n+4)^0,f,c
  2813   007382  1E38               	comf	(dtoa@n+3)^0,f,c
  2814   007384  1E37               	comf	(dtoa@n+2)^0,f,c
  2815   007386  1E36               	comf	(dtoa@n+1)^0,f,c
  2816   007388  6C35               	negf	dtoa@n^0,c
  2817   00738A  0E00               	movlw	0
  2818   00738C  2236               	addwfc	(dtoa@n+1)^0,f,c
  2819   00738E  2237               	addwfc	(dtoa@n+2)^0,f,c
  2820   007390  2238               	addwfc	(dtoa@n+3)^0,f,c
  2821   007392  2239               	addwfc	(dtoa@n+4)^0,f,c
  2822   007394  223A               	addwfc	(dtoa@n+5)^0,f,c
  2823   007396  223B               	addwfc	(dtoa@n+6)^0,f,c
  2824   007398  223C               	addwfc	(dtoa@n+7)^0,f,c
  2825   00739A                     l2338:
  2826                           
  2827                           ;C:\Program Files\Microchip\xc8\v2.40\pic\sources\c99\common\doprnt.c: 462:     p = (0 <
      +                           prec) ? prec : 1;
  2828   00739A  0100               	movlb	0	; () banked
  2829   00739C  BF8E               	btfsc	(_prec+1)& (0+255),7,b
  2830   00739E  EFDB  F039         	goto	u1460
  2831   0073A2  518E               	movf	(_prec+1)& (0+255),w,b
  2832   0073A4  E106               	bnz	u1461
  2833   0073A6  058D               	decf	_prec& (0+255),w,b
  2834   0073A8  B0D8               	btfsc	status,0,c
  2835   0073AA  EFD9  F039         	goto	u1461
  2836   0073AE  EFDB  F039         	goto	u1460
  2837   0073B2                     u1461:
  2838   0073B2  EFE1  F039         	goto	l1200
  2839   0073B6                     u1460:
  2840   0073B6                     
  2841                           ; BSR set to: 0
  2842   0073B6  0E00               	movlw	0
  2843   0073B8  6E32               	movwf	(dtoa@p+1)^0,c
  2844   0073BA  0E01               	movlw	1
  2845   0073BC  6E31               	movwf	dtoa@p^0,c
  2846   0073BE  EFE5  F039         	goto	l1202
  2847   0073C2                     l1200:
  2848                           
  2849                           ; BSR set to: 0
  2850   0073C2  C08D  F031         	movff	_prec,dtoa@p
  2851   0073C6  C08E  F032         	movff	_prec+1,dtoa@p+1
  2852   0073CA                     l1202:
  2853                           
  2854                           ; BSR set to: 0
  2855                           ;C:\Program Files\Microchip\xc8\v2.40\pic\sources\c99\common\doprnt.c: 463:     w = widt
      +                          h;
  2856   0073CA  C08B  F033         	movff	_width,dtoa@w
  2857   0073CE  C08C  F034         	movff	_width+1,dtoa@w+1
  2858   0073D2                     
  2859                           ; BSR set to: 0
  2860                           ;C:\Program Files\Microchip\xc8\v2.40\pic\sources\c99\common\doprnt.c: 464:     if (s
  2861   0073D2  503F               	movf	dtoa@s^0,w,c
  2862   0073D4  B4D8               	btfsc	status,2,c
  2863   0073D6  EFEF  F039         	goto	u1471
  2864   0073DA  EFF1  F039         	goto	u1470
  2865   0073DE                     u1471:
  2866   0073DE  EF08  F03A         	goto	l1203
  2867   0073E2                     u1470:
  2868   0073E2                     
  2869                           ; BSR set to: 0
  2870                           ;C:\Program Files\Microchip\xc8\v2.40\pic\sources\c99\common\doprnt.c: 468:     ) {;C:\P
      +                          rogram Files\Microchip\xc8\v2.40\pic\sources\c99\common\doprnt.c: 469:         --w;
  2871   0073E2  0633               	decf	dtoa@w^0,f,c
  2872   0073E4  A0D8               	btfss	status,0,c
  2873   0073E6  0634               	decf	(dtoa@w+1)^0,f,c
  2874   0073E8                     
  2875                           ; BSR set to: 0
  2876                           ;C:\Program Files\Microchip\xc8\v2.40\pic\sources\c99\common\doprnt.c: 470:   s = s ? '-
      +                          ' : '+';
  2877   0073E8  503F               	movf	dtoa@s^0,w,c
  2878   0073EA  A4D8               	btfss	status,2,c
  2879   0073EC  EFFA  F039         	goto	u1481
  2880   0073F0  EFFC  F039         	goto	u1480
  2881   0073F4                     u1481:
  2882   0073F4  EF02  F03A         	goto	l2350
  2883   0073F8                     u1480:
  2884   0073F8                     
  2885                           ; BSR set to: 0
  2886   0073F8  0E00               	movlw	0
  2887   0073FA  6E30               	movwf	(_dtoa$2030+1)^0,c
  2888   0073FC  0E2B               	movlw	43
  2889   0073FE  6E2F               	movwf	_dtoa$2030^0,c
  2890   007400  EF06  F03A         	goto	l2352
  2891   007404                     l2350:
  2892                           
  2893                           ; BSR set to: 0
  2894   007404  0E00               	movlw	0
  2895   007406  6E30               	movwf	(_dtoa$2030+1)^0,c
  2896   007408  0E2D               	movlw	45
  2897   00740A  6E2F               	movwf	_dtoa$2030^0,c
  2898   00740C                     l2352:
  2899                           
  2900                           ; BSR set to: 0
  2901   00740C  C02F  F03F         	movff	_dtoa$2030,dtoa@s
  2902   007410                     l1203:
  2903                           
  2904                           ; BSR set to: 0
  2905                           ;C:\Program Files\Microchip\xc8\v2.40\pic\sources\c99\common\doprnt.c: 480:     i = size
      +                          of(dbuf) - 1;
  2906   007410  0E00               	movlw	0
  2907   007412  6E3E               	movwf	(dtoa@i+1)^0,c
  2908   007414  0E1F               	movlw	31
  2909   007416  6E3D               	movwf	dtoa@i^0,c
  2910   007418                     
  2911                           ; BSR set to: 0
  2912                           ;C:\Program Files\Microchip\xc8\v2.40\pic\sources\c99\common\doprnt.c: 481:     dbuf[i] 
      +                          = '\0';
  2913   007418  0E00               	movlw	0
  2914   00741A  6FB3               	movwf	(_dbuf+31)& (0+255),b
  2915                           
  2916                           ;C:\Program Files\Microchip\xc8\v2.40\pic\sources\c99\common\doprnt.c: 482:     while (!
      +                          (i < 1) && (n || (0 < p)
  2917   00741C  EF8C  F03A         	goto	l2366
  2918   007420                     l2356:
  2919                           
  2920                           ;C:\Program Files\Microchip\xc8\v2.40\pic\sources\c99\common\doprnt.c: 486:     )) {;C:\
      +                          Program Files\Microchip\xc8\v2.40\pic\sources\c99\common\doprnt.c: 487:         --i;
  2921   007420  063D               	decf	dtoa@i^0,f,c
  2922   007422  A0D8               	btfss	status,0,c
  2923   007424  063E               	decf	(dtoa@i+1)^0,f,c
  2924   007426                     
  2925                           ;C:\Program Files\Microchip\xc8\v2.40\pic\sources\c99\common\doprnt.c: 488:         dbuf
      +                          [i] = (char)((int)'0' + abs(n % 10));
  2926   007426  0E94               	movlw	low _dbuf
  2927   007428  243D               	addwf	dtoa@i^0,w,c
  2928   00742A  6ED9               	movwf	fsr2l,c
  2929   00742C  0E00               	movlw	high _dbuf
  2930   00742E  203E               	addwfc	(dtoa@i+1)^0,w,c
  2931   007430  6EDA               	movwf	fsr2h,c
  2932   007432  C035  F001         	movff	dtoa@n,___aomod@dividend
  2933   007436  C036  F002         	movff	dtoa@n+1,___aomod@dividend+1
  2934   00743A  C037  F003         	movff	dtoa@n+2,___aomod@dividend+2
  2935   00743E  C038  F004         	movff	dtoa@n+3,___aomod@dividend+3
  2936   007442  C039  F005         	movff	dtoa@n+4,___aomod@dividend+4
  2937   007446  C03A  F006         	movff	dtoa@n+5,___aomod@dividend+5
  2938   00744A  C03B  F007         	movff	dtoa@n+6,___aomod@dividend+6
  2939   00744E  C03C  F008         	movff	dtoa@n+7,___aomod@dividend+7
  2940   007452  0E0A               	movlw	10
  2941   007454  6E09               	movwf	___aomod@divisor^0,c
  2942   007456  0E00               	movlw	0
  2943   007458  6E0A               	movwf	(___aomod@divisor+1)^0,c
  2944   00745A  0E00               	movlw	0
  2945   00745C  6E0B               	movwf	(___aomod@divisor+2)^0,c
  2946   00745E  0E00               	movlw	0
  2947   007460  6E0C               	movwf	(___aomod@divisor+3)^0,c
  2948   007462  0E00               	movlw	0
  2949   007464  6E0D               	movwf	(___aomod@divisor+4)^0,c
  2950   007466  0E00               	movlw	0
  2951   007468  6E0E               	movwf	(___aomod@divisor+5)^0,c
  2952   00746A  0E00               	movlw	0
  2953   00746C  6E0F               	movwf	(___aomod@divisor+6)^0,c
  2954   00746E  0E00               	movlw	0
  2955   007470  6E10               	movwf	(___aomod@divisor+7)^0,c
  2956   007472  EC25  F038         	call	___aomod	;wreg free
  2957   007476  C001  F027         	movff	?___aomod,??_dtoa
  2958   00747A  C002  F028         	movff	?___aomod+1,??_dtoa+1
  2959   00747E  C003  F029         	movff	?___aomod+2,??_dtoa+2
  2960   007482  C004  F02A         	movff	?___aomod+3,??_dtoa+3
  2961   007486  C005  F02B         	movff	?___aomod+4,??_dtoa+4
  2962   00748A  C006  F02C         	movff	?___aomod+5,??_dtoa+5
  2963   00748E  C007  F02D         	movff	?___aomod+6,??_dtoa+6
  2964   007492  C008  F02E         	movff	?___aomod+7,??_dtoa+7
  2965   007496  C027  F013         	movff	??_dtoa,abs@a
  2966   00749A  C028  F014         	movff	??_dtoa+1,abs@a+1
  2967   00749E  EC6E  F035         	call	_abs	;wreg free
  2968   0074A2  5013               	movf	?_abs^0,w,c
  2969   0074A4  0F30               	addlw	48
  2970   0074A6  6EDF               	movwf	indf2,c
  2971   0074A8                     
  2972                           ;C:\Program Files\Microchip\xc8\v2.40\pic\sources\c99\common\doprnt.c: 489:         --p;
  2973   0074A8  0631               	decf	dtoa@p^0,f,c
  2974   0074AA  A0D8               	btfss	status,0,c
  2975   0074AC  0632               	decf	(dtoa@p+1)^0,f,c
  2976   0074AE                     
  2977                           ;C:\Program Files\Microchip\xc8\v2.40\pic\sources\c99\common\doprnt.c: 490:         --w;
  2978   0074AE  0633               	decf	dtoa@w^0,f,c
  2979   0074B0  A0D8               	btfss	status,0,c
  2980   0074B2  0634               	decf	(dtoa@w+1)^0,f,c
  2981   0074B4                     
  2982                           ;C:\Program Files\Microchip\xc8\v2.40\pic\sources\c99\common\doprnt.c: 491:         n = 
      +                          n / 10;
  2983   0074B4  C035  F001         	movff	dtoa@n,___aodiv@dividend
  2984   0074B8  C036  F002         	movff	dtoa@n+1,___aodiv@dividend+1
  2985   0074BC  C037  F003         	movff	dtoa@n+2,___aodiv@dividend+2
  2986   0074C0  C038  F004         	movff	dtoa@n+3,___aodiv@dividend+3
  2987   0074C4  C039  F005         	movff	dtoa@n+4,___aodiv@dividend+4
  2988   0074C8  C03A  F006         	movff	dtoa@n+5,___aodiv@dividend+5
  2989   0074CC  C03B  F007         	movff	dtoa@n+6,___aodiv@dividend+6
  2990   0074D0  C03C  F008         	movff	dtoa@n+7,___aodiv@dividend+7
  2991   0074D4  0E0A               	movlw	10
  2992   0074D6  6E09               	movwf	___aodiv@divisor^0,c
  2993   0074D8  0E00               	movlw	0
  2994   0074DA  6E0A               	movwf	(___aodiv@divisor+1)^0,c
  2995   0074DC  0E00               	movlw	0
  2996   0074DE  6E0B               	movwf	(___aodiv@divisor+2)^0,c
  2997   0074E0  0E00               	movlw	0
  2998   0074E2  6E0C               	movwf	(___aodiv@divisor+3)^0,c
  2999   0074E4  0E00               	movlw	0
  3000   0074E6  6E0D               	movwf	(___aodiv@divisor+4)^0,c
  3001   0074E8  0E00               	movlw	0
  3002   0074EA  6E0E               	movwf	(___aodiv@divisor+5)^0,c
  3003   0074EC  0E00               	movlw	0
  3004   0074EE  6E0F               	movwf	(___aodiv@divisor+6)^0,c
  3005   0074F0  0E00               	movlw	0
  3006   0074F2  6E10               	movwf	(___aodiv@divisor+7)^0,c
  3007   0074F4  ECD7  F038         	call	___aodiv	;wreg free
  3008   0074F8  C001  F035         	movff	?___aodiv,dtoa@n
  3009   0074FC  C002  F036         	movff	?___aodiv+1,dtoa@n+1
  3010   007500  C003  F037         	movff	?___aodiv+2,dtoa@n+2
  3011   007504  C004  F038         	movff	?___aodiv+3,dtoa@n+3
  3012   007508  C005  F039         	movff	?___aodiv+4,dtoa@n+4
  3013   00750C  C006  F03A         	movff	?___aodiv+5,dtoa@n+5
  3014   007510  C007  F03B         	movff	?___aodiv+6,dtoa@n+6
  3015   007514  C008  F03C         	movff	?___aodiv+7,dtoa@n+7
  3016   007518                     l2366:
  3017                           
  3018                           ;C:\Program Files\Microchip\xc8\v2.40\pic\sources\c99\common\doprnt.c: 482:     while (!
      +                          (i < 1) && (n || (0 < p)
  3019   007518  BE3E               	btfsc	(dtoa@i+1)^0,7,c
  3020   00751A  EF97  F03A         	goto	u1491
  3021   00751E  503E               	movf	(dtoa@i+1)^0,w,c
  3022   007520  E108               	bnz	u1490
  3023   007522  043D               	decf	dtoa@i^0,w,c
  3024   007524  A0D8               	btfss	status,0,c
  3025   007526  EF97  F03A         	goto	u1491
  3026   00752A  EF99  F03A         	goto	u1490
  3027   00752E                     u1491:
  3028   00752E  EFB5  F03A         	goto	l2372
  3029   007532                     u1490:
  3030   007532  5035               	movf	dtoa@n^0,w,c
  3031   007534  1036               	iorwf	(dtoa@n+1)^0,w,c
  3032   007536  1037               	iorwf	(dtoa@n+2)^0,w,c
  3033   007538  1038               	iorwf	(dtoa@n+3)^0,w,c
  3034   00753A  1039               	iorwf	(dtoa@n+4)^0,w,c
  3035   00753C  103A               	iorwf	(dtoa@n+5)^0,w,c
  3036   00753E  103B               	iorwf	(dtoa@n+6)^0,w,c
  3037   007540  103C               	iorwf	(dtoa@n+7)^0,w,c
  3038   007542  A4D8               	btfss	status,2,c
  3039   007544  EFA6  F03A         	goto	u1501
  3040   007548  EFA8  F03A         	goto	u1500
  3041   00754C                     u1501:
  3042   00754C  EF10  F03A         	goto	l2356
  3043   007550                     u1500:
  3044   007550  BE32               	btfsc	(dtoa@p+1)^0,7,c
  3045   007552  EFB5  F03A         	goto	u1510
  3046   007556  5032               	movf	(dtoa@p+1)^0,w,c
  3047   007558  E106               	bnz	u1511
  3048   00755A  0431               	decf	dtoa@p^0,w,c
  3049   00755C  B0D8               	btfsc	status,0,c
  3050   00755E  EFB3  F03A         	goto	u1511
  3051   007562  EFB5  F03A         	goto	u1510
  3052   007566                     u1511:
  3053   007566  EF10  F03A         	goto	l2356
  3054   00756A                     u1510:
  3055   00756A                     l2372:
  3056                           
  3057                           ;C:\Program Files\Microchip\xc8\v2.40\pic\sources\c99\common\doprnt.c: 495:     if (s !=
      +                           0) {
  3058   00756A  503F               	movf	dtoa@s^0,w,c
  3059   00756C  B4D8               	btfsc	status,2,c
  3060   00756E  EFBB  F03A         	goto	u1521
  3061   007572  EFBD  F03A         	goto	u1520
  3062   007576                     u1521:
  3063   007576  EFC8  F03A         	goto	l2378
  3064   00757A                     u1520:
  3065   00757A                     
  3066                           ;C:\Program Files\Microchip\xc8\v2.40\pic\sources\c99\common\doprnt.c: 496:         --i;
  3067   00757A  063D               	decf	dtoa@i^0,f,c
  3068   00757C  A0D8               	btfss	status,0,c
  3069   00757E  063E               	decf	(dtoa@i+1)^0,f,c
  3070   007580                     
  3071                           ;C:\Program Files\Microchip\xc8\v2.40\pic\sources\c99\common\doprnt.c: 497:         dbuf
      +                          [i] = s;
  3072   007580  0E94               	movlw	low _dbuf
  3073   007582  243D               	addwf	dtoa@i^0,w,c
  3074   007584  6ED9               	movwf	fsr2l,c
  3075   007586  0E00               	movlw	high _dbuf
  3076   007588  203E               	addwfc	(dtoa@i+1)^0,w,c
  3077   00758A  6EDA               	movwf	fsr2h,c
  3078   00758C  C03F  FFDF         	movff	dtoa@s,indf2
  3079   007590                     l2378:
  3080                           
  3081                           ;C:\Program Files\Microchip\xc8\v2.40\pic\sources\c99\common\doprnt.c: 501:     return (
      +                          void) pad(fp, &dbuf[i], w);
  3082   007590  C01D  F012         	movff	dtoa@fp,pad@fp
  3083   007594  C01E  F013         	movff	dtoa@fp+1,pad@fp+1
  3084   007598  0E94               	movlw	low _dbuf
  3085   00759A  243D               	addwf	dtoa@i^0,w,c
  3086   00759C  6E14               	movwf	pad@buf^0,c
  3087   00759E  0E00               	movlw	high _dbuf
  3088   0075A0  203E               	addwfc	(dtoa@i+1)^0,w,c
  3089   0075A2  6E15               	movwf	(pad@buf+1)^0,c
  3090   0075A4  C033  F016         	movff	dtoa@w,pad@p
  3091   0075A8  C034  F017         	movff	dtoa@w+1,pad@p+1
  3092   0075AC  EC9D  F036         	call	_pad	;wreg free
  3093   0075B0  0012               	return		;funcret
  3094   0075B2                     __end_of_dtoa:
  3095                           	callstack 0
  3096                           
  3097 ;; *************** function _pad *****************
  3098 ;; Defined at:
  3099 ;;		line 133 in file "C:\Program Files\Microchip\xc8\v2.40\pic\sources\c99\common\doprnt.c"
  3100 ;; Parameters:    Size  Location     Type
  3101 ;;  fp              2   17[COMRAM] PTR struct _IO_FILE
  3102 ;;		 -> sprintf@f(11), 
  3103 ;;  buf             2   19[COMRAM] PTR unsigned char 
  3104 ;;		 -> dbuf(32), 
  3105 ;;  p               2   21[COMRAM] int 
  3106 ;; Auto vars:     Size  Location     Type
  3107 ;;  w               2   26[COMRAM] int 
  3108 ;;  i               2   24[COMRAM] int 
  3109 ;; Return value:  Size  Location     Type
  3110 ;;                  1    wreg      void 
  3111 ;; Registers used:
  3112 ;;		wreg, fsr1l, fsr1h, fsr2l, fsr2h, status,2, status,0, cstack
  3113 ;; Tracked objects:
  3114 ;;		On entry : 0/0
  3115 ;;		On exit  : 0/0
  3116 ;;		Unchanged: 0/0
  3117 ;; Data sizes:     COMRAM   BANK0   BANK1   BANK2   BANK3   BANK4   BANK5   BANK6   BANK7
  3118 ;;      Params:         6       0       0       0       0       0       0       0       0
  3119 ;;      Locals:         4       0       0       0       0       0       0       0       0
  3120 ;;      Temps:          1       0       0       0       0       0       0       0       0
  3121 ;;      Totals:        11       0       0       0       0       0       0       0       0
  3122 ;;Total ram usage:       11 bytes
  3123 ;; Hardware stack levels used: 1
  3124 ;; Hardware stack levels required when called: 3
  3125 ;; This function calls:
  3126 ;;		_fputc
  3127 ;;		_fputs
  3128 ;; This function is called by:
  3129 ;;		_dtoa
  3130 ;; This function uses a non-reentrant model
  3131 ;;
  3132                           
  3133                           	psect	text5
  3134   006D3A                     __ptext5:
  3135                           	callstack 0
  3136   006D3A                     _pad:
  3137                           	callstack 23
  3138   006D3A                     
  3139                           ;C:\Program Files\Microchip\xc8\v2.40\pic\sources\c99\common\doprnt.c: 133: static void 
      +                          pad(FILE *fp, char *buf, int p);C:\Program Files\Microchip\xc8\v2.40\pic\sources\c99\com
      +                          mon\doprnt.c: 134: {;C:\Program Files\Microchip\xc8\v2.40\pic\sources\c99\common\doprnt.
      +                          c: 135:     int i, w;;C:\Program Files\Microchip\xc8\v2.40\pic\sources\c99\common\doprnt
      +                          .c: 145:     w = (p < 0) ? 0 : p;
  3140   006D3A  BE17               	btfsc	(pad@p+1)^0,7,c
  3141   006D3C  EFA2  F036         	goto	u1401
  3142   006D40  EFA4  F036         	goto	u1400
  3143   006D44                     u1401:
  3144   006D44  EFAA  F036         	goto	l2316
  3145   006D48                     u1400:
  3146   006D48  C016  F01B         	movff	pad@p,pad@w
  3147   006D4C  C017  F01C         	movff	pad@p+1,pad@w+1
  3148   006D50  EFAE  F036         	goto	l1191
  3149   006D54                     l2316:
  3150   006D54  0E00               	movlw	0
  3151   006D56  6E1C               	movwf	(pad@w+1)^0,c
  3152   006D58  0E00               	movlw	0
  3153   006D5A  6E1B               	movwf	pad@w^0,c
  3154   006D5C                     l1191:
  3155                           
  3156                           ;C:\Program Files\Microchip\xc8\v2.40\pic\sources\c99\common\doprnt.c: 146:     i = 0;
  3157   006D5C  0E00               	movlw	0
  3158   006D5E  6E1A               	movwf	(pad@i+1)^0,c
  3159   006D60  0E00               	movlw	0
  3160   006D62  6E19               	movwf	pad@i^0,c
  3161                           
  3162                           ;C:\Program Files\Microchip\xc8\v2.40\pic\sources\c99\common\doprnt.c: 147:     while (i
      +                           < w) {
  3163   006D64  EFC0  F036         	goto	l2322
  3164   006D68                     l2318:
  3165                           
  3166                           ;C:\Program Files\Microchip\xc8\v2.40\pic\sources\c99\common\doprnt.c: 148:         fput
      +                          c(' ', fp);
  3167   006D68  0E00               	movlw	0
  3168   006D6A  6E03               	movwf	(fputc@c+1)^0,c
  3169   006D6C  0E20               	movlw	32
  3170   006D6E  6E02               	movwf	fputc@c^0,c
  3171   006D70  C012  F004         	movff	pad@fp,fputc@fp
  3172   006D74  C013  F005         	movff	pad@fp+1,fputc@fp+1
  3173   006D78  EC19  F037         	call	_fputc	;wreg free
  3174   006D7C                     
  3175                           ;C:\Program Files\Microchip\xc8\v2.40\pic\sources\c99\common\doprnt.c: 149:         ++i;
  3176   006D7C  4A19               	infsnz	pad@i^0,f,c
  3177   006D7E  2A1A               	incf	(pad@i+1)^0,f,c
  3178   006D80                     l2322:
  3179                           
  3180                           ;C:\Program Files\Microchip\xc8\v2.40\pic\sources\c99\common\doprnt.c: 147:     while (i
      +                           < w) {
  3181   006D80  501B               	movf	pad@w^0,w,c
  3182   006D82  5C19               	subwf	pad@i^0,w,c
  3183   006D84  501A               	movf	(pad@i+1)^0,w,c
  3184   006D86  0A80               	xorlw	128
  3185   006D88  6E18               	movwf	??_pad^0,c
  3186   006D8A  501C               	movf	(pad@w+1)^0,w,c
  3187   006D8C  0A80               	xorlw	128
  3188   006D8E  5818               	subwfb	??_pad^0,w,c
  3189   006D90  A0D8               	btfss	status,0,c
  3190   006D92  EFCD  F036         	goto	u1411
  3191   006D96  EFCF  F036         	goto	u1410
  3192   006D9A                     u1411:
  3193   006D9A  EFB4  F036         	goto	l2318
  3194   006D9E                     u1410:
  3195   006D9E                     
  3196                           ;C:\Program Files\Microchip\xc8\v2.40\pic\sources\c99\common\doprnt.c: 156:         fput
      +                          s((const char *)buf, fp);
  3197   006D9E  C014  F00B         	movff	pad@buf,fputs@s
  3198   006DA2  C015  F00C         	movff	pad@buf+1,fputs@s+1
  3199   006DA6  C012  F00D         	movff	pad@fp,fputs@fp
  3200   006DAA  C013  F00E         	movff	pad@fp+1,fputs@fp+1
  3201   006DAE  EC8E  F035         	call	_fputs	;wreg free
  3202   006DB2  0012               	return		;funcret
  3203   006DB4                     __end_of_pad:
  3204                           	callstack 0
  3205                           
  3206 ;; *************** function _fputs *****************
  3207 ;; Defined at:
  3208 ;;		line 8 in file "C:\Program Files\Microchip\xc8\v2.40\pic\sources\c99\common\nf_fputs.c"
  3209 ;; Parameters:    Size  Location     Type
  3210 ;;  s               2   10[COMRAM] PTR const unsigned char 
  3211 ;;		 -> dbuf(32), 
  3212 ;;  fp              2   12[COMRAM] PTR struct _IO_FILE
  3213 ;;		 -> sprintf@f(11), 
  3214 ;; Auto vars:     Size  Location     Type
  3215 ;;  i               2   15[COMRAM] int 
  3216 ;;  c               1   14[COMRAM] unsigned char 
  3217 ;; Return value:  Size  Location     Type
  3218 ;;                  2   10[COMRAM] int 
  3219 ;; Registers used:
  3220 ;;		wreg, fsr1l, fsr1h, fsr2l, fsr2h, status,2, status,0, cstack
  3221 ;; Tracked objects:
  3222 ;;		On entry : 0/0
  3223 ;;		On exit  : 0/0
  3224 ;;		Unchanged: 0/0
  3225 ;; Data sizes:     COMRAM   BANK0   BANK1   BANK2   BANK3   BANK4   BANK5   BANK6   BANK7
  3226 ;;      Params:         4       0       0       0       0       0       0       0       0
  3227 ;;      Locals:         3       0       0       0       0       0       0       0       0
  3228 ;;      Temps:          0       0       0       0       0       0       0       0       0
  3229 ;;      Totals:         7       0       0       0       0       0       0       0       0
  3230 ;;Total ram usage:        7 bytes
  3231 ;; Hardware stack levels used: 1
  3232 ;; Hardware stack levels required when called: 2
  3233 ;; This function calls:
  3234 ;;		_fputc
  3235 ;; This function is called by:
  3236 ;;		_pad
  3237 ;; This function uses a non-reentrant model
  3238 ;;
  3239                           
  3240                           	psect	text6
  3241   006B1C                     __ptext6:
  3242                           	callstack 0
  3243   006B1C                     _fputs:
  3244                           	callstack 23
  3245   006B1C  0E00               	movlw	0
  3246   006B1E  6E11               	movwf	(fputs@i+1)^0,c
  3247   006B20  0E00               	movlw	0
  3248   006B22  6E10               	movwf	fputs@i^0,c
  3249   006B24  EF9F  F035         	goto	l2230
  3250   006B28                     l2226:
  3251   006B28  C00F  F002         	movff	fputs@c,fputc@c
  3252   006B2C  6A03               	clrf	(fputc@c+1)^0,c
  3253   006B2E  C00D  F004         	movff	fputs@fp,fputc@fp
  3254   006B32  C00E  F005         	movff	fputs@fp+1,fputc@fp+1
  3255   006B36  EC19  F037         	call	_fputc	;wreg free
  3256   006B3A  4A10               	infsnz	fputs@i^0,f,c
  3257   006B3C  2A11               	incf	(fputs@i+1)^0,f,c
  3258   006B3E                     l2230:
  3259   006B3E  5010               	movf	fputs@i^0,w,c
  3260   006B40  240B               	addwf	fputs@s^0,w,c
  3261   006B42  6ED9               	movwf	fsr2l,c
  3262   006B44  5011               	movf	(fputs@i+1)^0,w,c
  3263   006B46  200C               	addwfc	(fputs@s+1)^0,w,c
  3264   006B48  6EDA               	movwf	fsr2h,c
  3265   006B4A  50DF               	movf	indf2,w,c
  3266   006B4C  6E0F               	movwf	fputs@c^0,c
  3267   006B4E  500F               	movf	fputs@c^0,w,c
  3268   006B50  A4D8               	btfss	status,2,c
  3269   006B52  EFAD  F035         	goto	u1261
  3270   006B56  EFAF  F035         	goto	u1260
  3271   006B5A                     u1261:
  3272   006B5A  EF94  F035         	goto	l2226
  3273   006B5E                     u1260:
  3274   006B5E  0012               	return		;funcret
  3275   006B60                     __end_of_fputs:
  3276                           	callstack 0
  3277                           
  3278 ;; *************** function _fputc *****************
  3279 ;; Defined at:
  3280 ;;		line 8 in file "C:\Program Files\Microchip\xc8\v2.40\pic\sources\c99\common\nf_fputc.c"
  3281 ;; Parameters:    Size  Location     Type
  3282 ;;  c               2    1[COMRAM] int 
  3283 ;;  fp              2    3[COMRAM] PTR struct _IO_FILE
  3284 ;;		 -> sprintf@f(11), 
  3285 ;; Auto vars:     Size  Location     Type
  3286 ;;		None
  3287 ;; Return value:  Size  Location     Type
  3288 ;;                  2    1[COMRAM] int 
  3289 ;; Registers used:
  3290 ;;		wreg, fsr1l, fsr1h, fsr2l, fsr2h, status,2, status,0, cstack
  3291 ;; Tracked objects:
  3292 ;;		On entry : 0/0
  3293 ;;		On exit  : 0/0
  3294 ;;		Unchanged: 0/0
  3295 ;; Data sizes:     COMRAM   BANK0   BANK1   BANK2   BANK3   BANK4   BANK5   BANK6   BANK7
  3296 ;;      Params:         4       0       0       0       0       0       0       0       0
  3297 ;;      Locals:         0       0       0       0       0       0       0       0       0
  3298 ;;      Temps:          5       0       0       0       0       0       0       0       0
  3299 ;;      Totals:         9       0       0       0       0       0       0       0       0
  3300 ;;Total ram usage:        9 bytes
  3301 ;; Hardware stack levels used: 1
  3302 ;; Hardware stack levels required when called: 1
  3303 ;; This function calls:
  3304 ;;		_putch
  3305 ;; This function is called by:
  3306 ;;		_pad
  3307 ;;		_vfpfcnvrt
  3308 ;;		_fputs
  3309 ;; This function uses a non-reentrant model
  3310 ;;
  3311                           
  3312                           	psect	text7
  3313   006E32                     __ptext7:
  3314                           	callstack 0
  3315   006E32                     _fputc:
  3316                           	callstack 26
  3317   006E32  5004               	movf	fputc@fp^0,w,c
  3318   006E34  1005               	iorwf	(fputc@fp+1)^0,w,c
  3319   006E36  B4D8               	btfsc	status,2,c
  3320   006E38  EF20  F037         	goto	u1221
  3321   006E3C  EF22  F037         	goto	u1220
  3322   006E40                     u1221:
  3323   006E40  EF2B  F037         	goto	l2214
  3324   006E44                     u1220:
  3325   006E44  5004               	movf	fputc@fp^0,w,c
  3326   006E46  1005               	iorwf	(fputc@fp+1)^0,w,c
  3327   006E48  A4D8               	btfss	status,2,c
  3328   006E4A  EF29  F037         	goto	u1231
  3329   006E4E  EF2B  F037         	goto	u1230
  3330   006E52                     u1231:
  3331   006E52  EF30  F037         	goto	l2216
  3332   006E56                     u1230:
  3333   006E56                     l2214:
  3334   006E56  5002               	movf	fputc@c^0,w,c
  3335   006E58  EC08  F035         	call	_putch
  3336   006E5C  EF7D  F037         	goto	l1246
  3337   006E60                     l2216:
  3338   006E60  EE20 F009          	lfsr	2,9
  3339   006E64  5004               	movf	fputc@fp^0,w,c
  3340   006E66  26D9               	addwf	fsr2l,f,c
  3341   006E68  5005               	movf	(fputc@fp+1)^0,w,c
  3342   006E6A  22DA               	addwfc	fsr2h,f,c
  3343   006E6C  50DE               	movf	postinc2,w,c
  3344   006E6E  10DE               	iorwf	postinc2,w,c
  3345   006E70  B4D8               	btfsc	status,2,c
  3346   006E72  EF3D  F037         	goto	u1241
  3347   006E76  EF3F  F037         	goto	u1240
  3348   006E7A                     u1241:
  3349   006E7A  EF5A  F037         	goto	l2220
  3350   006E7E                     u1240:
  3351   006E7E  EE20 F009          	lfsr	2,9
  3352   006E82  5004               	movf	fputc@fp^0,w,c
  3353   006E84  26D9               	addwf	fsr2l,f,c
  3354   006E86  5005               	movf	(fputc@fp+1)^0,w,c
  3355   006E88  22DA               	addwfc	fsr2h,f,c
  3356   006E8A  EE10 F003          	lfsr	1,3
  3357   006E8E  5004               	movf	fputc@fp^0,w,c
  3358   006E90  26E1               	addwf	fsr1l,f,c
  3359   006E92  5005               	movf	(fputc@fp+1)^0,w,c
  3360   006E94  22E2               	addwfc	fsr1h,f,c
  3361   006E96  50DE               	movf	postinc2,w,c
  3362   006E98  5CE6               	subwf	postinc1,w,c
  3363   006E9A  50E6               	movf	postinc1,w,c
  3364   006E9C  0A80               	xorlw	128
  3365   006E9E  6E0A               	movwf	(??_fputc+4)^0,c
  3366   006EA0  50DE               	movf	postinc2,w,c
  3367   006EA2  0A80               	xorlw	128
  3368   006EA4  580A               	subwfb	(??_fputc+4)^0,w,c
  3369   006EA6  B0D8               	btfsc	status,0,c
  3370   006EA8  EF58  F037         	goto	u1251
  3371   006EAC  EF5A  F037         	goto	u1250
  3372   006EB0                     u1251:
  3373   006EB0  EF7D  F037         	goto	l1246
  3374   006EB4                     u1250:
  3375   006EB4                     l2220:
  3376   006EB4  EE20 F003          	lfsr	2,3
  3377   006EB8  5004               	movf	fputc@fp^0,w,c
  3378   006EBA  26D9               	addwf	fsr2l,f,c
  3379   006EBC  5005               	movf	(fputc@fp+1)^0,w,c
  3380   006EBE  22DA               	addwfc	fsr2h,f,c
  3381   006EC0  CFDE F006          	movff	postinc2,??_fputc
  3382   006EC4  CFDD F007          	movff	postdec2,??_fputc+1
  3383   006EC8  C004  FFD9         	movff	fputc@fp,fsr2l
  3384   006ECC  C005  FFDA         	movff	fputc@fp+1,fsr2h
  3385   006ED0  CFDE F008          	movff	postinc2,??_fputc+2
  3386   006ED4  CFDD F009          	movff	postdec2,??_fputc+3
  3387   006ED8  5006               	movf	??_fputc^0,w,c
  3388   006EDA  2408               	addwf	(??_fputc+2)^0,w,c
  3389   006EDC  6ED9               	movwf	fsr2l,c
  3390   006EDE  5007               	movf	(??_fputc+1)^0,w,c
  3391   006EE0  2009               	addwfc	(??_fputc+3)^0,w,c
  3392   006EE2  6EDA               	movwf	fsr2h,c
  3393   006EE4  C002  FFDF         	movff	fputc@c,indf2
  3394   006EE8  EE20 F003          	lfsr	2,3
  3395   006EEC  5004               	movf	fputc@fp^0,w,c
  3396   006EEE  26D9               	addwf	fsr2l,f,c
  3397   006EF0  5005               	movf	(fputc@fp+1)^0,w,c
  3398   006EF2  22DA               	addwfc	fsr2h,f,c
  3399   006EF4  2ADE               	incf	postinc2,f,c
  3400   006EF6  0E00               	movlw	0
  3401   006EF8  22DD               	addwfc	postdec2,f,c
  3402   006EFA                     l1246:
  3403   006EFA  0012               	return		;funcret
  3404   006EFC                     __end_of_fputc:
  3405                           	callstack 0
  3406                           
  3407 ;; *************** function _putch *****************
  3408 ;; Defined at:
  3409 ;;		line 93 in file "LibreriasPIC/usart.c"
  3410 ;; Parameters:    Size  Location     Type
  3411 ;;  c               1    wreg     unsigned char 
  3412 ;; Auto vars:     Size  Location     Type
  3413 ;;  c               1    0[COMRAM] unsigned char 
  3414 ;; Return value:  Size  Location     Type
  3415 ;;                  1    wreg      void 
  3416 ;; Registers used:
  3417 ;;		wreg
  3418 ;; Tracked objects:
  3419 ;;		On entry : 0/0
  3420 ;;		On exit  : 0/0
  3421 ;;		Unchanged: 0/0
  3422 ;; Data sizes:     COMRAM   BANK0   BANK1   BANK2   BANK3   BANK4   BANK5   BANK6   BANK7
  3423 ;;      Params:         0       0       0       0       0       0       0       0       0
  3424 ;;      Locals:         1       0       0       0       0       0       0       0       0
  3425 ;;      Temps:          0       0       0       0       0       0       0       0       0
  3426 ;;      Totals:         1       0       0       0       0       0       0       0       0
  3427 ;;Total ram usage:        1 bytes
  3428 ;; Hardware stack levels used: 1
  3429 ;; This function calls:
  3430 ;;		Nothing
  3431 ;; This function is called by:
  3432 ;;		_fputc
  3433 ;; This function uses a non-reentrant model
  3434 ;;
  3435                           
  3436                           	psect	text8
  3437   006A10                     __ptext8:
  3438                           	callstack 0
  3439   006A10                     _putch:
  3440                           	callstack 26
  3441                           
  3442                           ;incstack = 0
  3443                           ;putch@c stored from wreg
  3444   006A10  6E01               	movwf	putch@c^0,c
  3445   006A12                     l363:
  3446   006A12  A2AC               	btfss	172,1,c	;volatile
  3447   006A14  EF0E  F035         	goto	u1211
  3448   006A18  EF10  F035         	goto	u1210
  3449   006A1C                     u1211:
  3450   006A1C  EF09  F035         	goto	l363
  3451   006A20                     u1210:
  3452   006A20                     
  3453                           ;LibreriasPIC/usart.c: 96:     TXREG1 = c;
  3454   006A20  C001  FFAD         	movff	putch@c,4013	;volatile
  3455   006A24  0012               	return		;funcret
  3456   006A26                     __end_of_putch:
  3457                           	callstack 0
  3458                           
  3459 ;; *************** function _abs *****************
  3460 ;; Defined at:
  3461 ;;		line 1 in file "C:\Program Files\Microchip\xc8\v2.40\pic\sources\c99\common\abs.c"
  3462 ;; Parameters:    Size  Location     Type
  3463 ;;  a               2   18[COMRAM] int 
  3464 ;; Auto vars:     Size  Location     Type
  3465 ;;		None
  3466 ;; Return value:  Size  Location     Type
  3467 ;;                  2   18[COMRAM] int 
  3468 ;; Registers used:
  3469 ;;		wreg, status,2, status,0
  3470 ;; Tracked objects:
  3471 ;;		On entry : 0/0
  3472 ;;		On exit  : 0/0
  3473 ;;		Unchanged: 0/0
  3474 ;; Data sizes:     COMRAM   BANK0   BANK1   BANK2   BANK3   BANK4   BANK5   BANK6   BANK7
  3475 ;;      Params:         2       0       0       0       0       0       0       0       0
  3476 ;;      Locals:         0       0       0       0       0       0       0       0       0
  3477 ;;      Temps:          2       0       0       0       0       0       0       0       0
  3478 ;;      Totals:         4       0       0       0       0       0       0       0       0
  3479 ;;Total ram usage:        4 bytes
  3480 ;; Hardware stack levels used: 1
  3481 ;; This function calls:
  3482 ;;		Nothing
  3483 ;; This function is called by:
  3484 ;;		_dtoa
  3485 ;; This function uses a non-reentrant model
  3486 ;;
  3487                           
  3488                           	psect	text9
  3489   006ADC                     __ptext9:
  3490                           	callstack 0
  3491   006ADC                     _abs:
  3492                           	callstack 26
  3493   006ADC  BE14               	btfsc	(abs@a+1)^0,7,c
  3494   006ADE  EF7B  F035         	goto	u1420
  3495   006AE2  5014               	movf	(abs@a+1)^0,w,c
  3496   006AE4  E106               	bnz	u1421
  3497   006AE6  0413               	decf	abs@a^0,w,c
  3498   006AE8  B0D8               	btfsc	status,0,c
  3499   006AEA  EF79  F035         	goto	u1421
  3500   006AEE  EF7B  F035         	goto	u1420
  3501   006AF2                     u1421:
  3502   006AF2  EF89  F035         	goto	l1231
  3503   006AF6                     u1420:
  3504   006AF6  C013  F015         	movff	abs@a,??_abs
  3505   006AFA  C014  F016         	movff	abs@a+1,??_abs+1
  3506   006AFE  1E15               	comf	??_abs^0,f,c
  3507   006B00  1E16               	comf	(??_abs+1)^0,f,c
  3508   006B02  4A15               	infsnz	??_abs^0,f,c
  3509   006B04  2A16               	incf	(??_abs+1)^0,f,c
  3510   006B06  C015  F013         	movff	??_abs,?_abs
  3511   006B0A  C016  F014         	movff	??_abs+1,?_abs+1
  3512   006B0E  EF8D  F035         	goto	l1234
  3513   006B12                     l1231:
  3514   006B12  C013  F013         	movff	abs@a,?_abs
  3515   006B16  C014  F014         	movff	abs@a+1,?_abs+1
  3516   006B1A                     l1234:
  3517   006B1A  0012               	return		;funcret
  3518   006B1C                     __end_of_abs:
  3519                           	callstack 0
  3520                           
  3521 ;; *************** function ___aomod *****************
  3522 ;; Defined at:
  3523 ;;		line 9 in file "C:\Program Files\Microchip\xc8\v2.40\pic\sources\c99\common\aomod.c"
  3524 ;; Parameters:    Size  Location     Type
  3525 ;;  dividend        8    0[COMRAM] long long 
  3526 ;;  divisor         8    8[COMRAM] long long 
  3527 ;; Auto vars:     Size  Location     Type
  3528 ;;  sign            1   17[COMRAM] unsigned char 
  3529 ;;  counter         1   16[COMRAM] unsigned char 
  3530 ;; Return value:  Size  Location     Type
  3531 ;;                  8    0[COMRAM] long long 
  3532 ;; Registers used:
  3533 ;;		wreg, status,2, status,0
  3534 ;; Tracked objects:
  3535 ;;		On entry : 0/0
  3536 ;;		On exit  : 0/0
  3537 ;;		Unchanged: 0/0
  3538 ;; Data sizes:     COMRAM   BANK0   BANK1   BANK2   BANK3   BANK4   BANK5   BANK6   BANK7
  3539 ;;      Params:        16       0       0       0       0       0       0       0       0
  3540 ;;      Locals:         2       0       0       0       0       0       0       0       0
  3541 ;;      Temps:          0       0       0       0       0       0       0       0       0
  3542 ;;      Totals:        18       0       0       0       0       0       0       0       0
  3543 ;;Total ram usage:       18 bytes
  3544 ;; Hardware stack levels used: 1
  3545 ;; This function calls:
  3546 ;;		Nothing
  3547 ;; This function is called by:
  3548 ;;		_dtoa
  3549 ;; This function uses a non-reentrant model
  3550 ;;
  3551                           
  3552                           	psect	text10
  3553   00704A                     __ptext10:
  3554                           	callstack 0
  3555   00704A                     ___aomod:
  3556                           	callstack 26
  3557   00704A  0E00               	movlw	0
  3558   00704C  6E12               	movwf	___aomod@sign^0,c
  3559   00704E  BE08               	btfsc	(___aomod@dividend+7)^0,7,c
  3560   007050  EF2E  F038         	goto	u1340
  3561   007054  EF2C  F038         	goto	u1341
  3562   007058                     u1341:
  3563   007058  EF40  F038         	goto	l2284
  3564   00705C                     u1340:
  3565   00705C  1E08               	comf	(___aomod@dividend+7)^0,f,c
  3566   00705E  1E07               	comf	(___aomod@dividend+6)^0,f,c
  3567   007060  1E06               	comf	(___aomod@dividend+5)^0,f,c
  3568   007062  1E05               	comf	(___aomod@dividend+4)^0,f,c
  3569   007064  1E04               	comf	(___aomod@dividend+3)^0,f,c
  3570   007066  1E03               	comf	(___aomod@dividend+2)^0,f,c
  3571   007068  1E02               	comf	(___aomod@dividend+1)^0,f,c
  3572   00706A  6C01               	negf	___aomod@dividend^0,c
  3573   00706C  0E00               	movlw	0
  3574   00706E  2202               	addwfc	(___aomod@dividend+1)^0,f,c
  3575   007070  2203               	addwfc	(___aomod@dividend+2)^0,f,c
  3576   007072  2204               	addwfc	(___aomod@dividend+3)^0,f,c
  3577   007074  2205               	addwfc	(___aomod@dividend+4)^0,f,c
  3578   007076  2206               	addwfc	(___aomod@dividend+5)^0,f,c
  3579   007078  2207               	addwfc	(___aomod@dividend+6)^0,f,c
  3580   00707A  2208               	addwfc	(___aomod@dividend+7)^0,f,c
  3581   00707C  0E01               	movlw	1
  3582   00707E  6E12               	movwf	___aomod@sign^0,c
  3583   007080                     l2284:
  3584   007080  BE10               	btfsc	(___aomod@divisor+7)^0,7,c
  3585   007082  EF47  F038         	goto	u1350
  3586   007086  EF45  F038         	goto	u1351
  3587   00708A                     u1351:
  3588   00708A  EF57  F038         	goto	l2288
  3589   00708E                     u1350:
  3590   00708E  1E10               	comf	(___aomod@divisor+7)^0,f,c
  3591   007090  1E0F               	comf	(___aomod@divisor+6)^0,f,c
  3592   007092  1E0E               	comf	(___aomod@divisor+5)^0,f,c
  3593   007094  1E0D               	comf	(___aomod@divisor+4)^0,f,c
  3594   007096  1E0C               	comf	(___aomod@divisor+3)^0,f,c
  3595   007098  1E0B               	comf	(___aomod@divisor+2)^0,f,c
  3596   00709A  1E0A               	comf	(___aomod@divisor+1)^0,f,c
  3597   00709C  6C09               	negf	___aomod@divisor^0,c
  3598   00709E  0E00               	movlw	0
  3599   0070A0  220A               	addwfc	(___aomod@divisor+1)^0,f,c
  3600   0070A2  220B               	addwfc	(___aomod@divisor+2)^0,f,c
  3601   0070A4  220C               	addwfc	(___aomod@divisor+3)^0,f,c
  3602   0070A6  220D               	addwfc	(___aomod@divisor+4)^0,f,c
  3603   0070A8  220E               	addwfc	(___aomod@divisor+5)^0,f,c
  3604   0070AA  220F               	addwfc	(___aomod@divisor+6)^0,f,c
  3605   0070AC  2210               	addwfc	(___aomod@divisor+7)^0,f,c
  3606   0070AE                     l2288:
  3607   0070AE  5009               	movf	___aomod@divisor^0,w,c
  3608   0070B0  100A               	iorwf	(___aomod@divisor+1)^0,w,c
  3609   0070B2  100B               	iorwf	(___aomod@divisor+2)^0,w,c
  3610   0070B4  100C               	iorwf	(___aomod@divisor+3)^0,w,c
  3611   0070B6  100D               	iorwf	(___aomod@divisor+4)^0,w,c
  3612   0070B8  100E               	iorwf	(___aomod@divisor+5)^0,w,c
  3613   0070BA  100F               	iorwf	(___aomod@divisor+6)^0,w,c
  3614   0070BC  1010               	iorwf	(___aomod@divisor+7)^0,w,c
  3615   0070BE  B4D8               	btfsc	status,2,c
  3616   0070C0  EF64  F038         	goto	u1361
  3617   0070C4  EF66  F038         	goto	u1360
  3618   0070C8                     u1361:
  3619   0070C8  EFAE  F038         	goto	l2304
  3620   0070CC                     u1360:
  3621   0070CC  0E01               	movlw	1
  3622   0070CE  6E11               	movwf	___aomod@counter^0,c
  3623   0070D0  EF74  F038         	goto	l2294
  3624   0070D4                     l2292:
  3625   0070D4  90D8               	bcf	status,0,c
  3626   0070D6  3609               	rlcf	___aomod@divisor^0,f,c
  3627   0070D8  360A               	rlcf	(___aomod@divisor+1)^0,f,c
  3628   0070DA  360B               	rlcf	(___aomod@divisor+2)^0,f,c
  3629   0070DC  360C               	rlcf	(___aomod@divisor+3)^0,f,c
  3630   0070DE  360D               	rlcf	(___aomod@divisor+4)^0,f,c
  3631   0070E0  360E               	rlcf	(___aomod@divisor+5)^0,f,c
  3632   0070E2  360F               	rlcf	(___aomod@divisor+6)^0,f,c
  3633   0070E4  3610               	rlcf	(___aomod@divisor+7)^0,f,c
  3634   0070E6  2A11               	incf	___aomod@counter^0,f,c
  3635   0070E8                     l2294:
  3636   0070E8  AE10               	btfss	(___aomod@divisor+7)^0,7,c
  3637   0070EA  EF79  F038         	goto	u1371
  3638   0070EE  EF7B  F038         	goto	u1370
  3639   0070F2                     u1371:
  3640   0070F2  EF6A  F038         	goto	l2292
  3641   0070F6                     u1370:
  3642   0070F6                     l2296:
  3643   0070F6  5009               	movf	___aomod@divisor^0,w,c
  3644   0070F8  5C01               	subwf	___aomod@dividend^0,w,c
  3645   0070FA  500A               	movf	(___aomod@divisor+1)^0,w,c
  3646   0070FC  5802               	subwfb	(___aomod@dividend+1)^0,w,c
  3647   0070FE  500B               	movf	(___aomod@divisor+2)^0,w,c
  3648   007100  5803               	subwfb	(___aomod@dividend+2)^0,w,c
  3649   007102  500C               	movf	(___aomod@divisor+3)^0,w,c
  3650   007104  5804               	subwfb	(___aomod@dividend+3)^0,w,c
  3651   007106  500D               	movf	(___aomod@divisor+4)^0,w,c
  3652   007108  5805               	subwfb	(___aomod@dividend+4)^0,w,c
  3653   00710A  500E               	movf	(___aomod@divisor+5)^0,w,c
  3654   00710C  5806               	subwfb	(___aomod@dividend+5)^0,w,c
  3655   00710E  500F               	movf	(___aomod@divisor+6)^0,w,c
  3656   007110  5807               	subwfb	(___aomod@dividend+6)^0,w,c
  3657   007112  5010               	movf	(___aomod@divisor+7)^0,w,c
  3658   007114  5808               	subwfb	(___aomod@dividend+7)^0,w,c
  3659   007116  A0D8               	btfss	status,0,c
  3660   007118  EF90  F038         	goto	u1381
  3661   00711C  EF92  F038         	goto	u1380
  3662   007120                     u1381:
  3663   007120  EFA2  F038         	goto	l2300
  3664   007124                     u1380:
  3665   007124  5009               	movf	___aomod@divisor^0,w,c
  3666   007126  5E01               	subwf	___aomod@dividend^0,f,c
  3667   007128  500A               	movf	(___aomod@divisor+1)^0,w,c
  3668   00712A  5A02               	subwfb	(___aomod@dividend+1)^0,f,c
  3669   00712C  500B               	movf	(___aomod@divisor+2)^0,w,c
  3670   00712E  5A03               	subwfb	(___aomod@dividend+2)^0,f,c
  3671   007130  500C               	movf	(___aomod@divisor+3)^0,w,c
  3672   007132  5A04               	subwfb	(___aomod@dividend+3)^0,f,c
  3673   007134  500D               	movf	(___aomod@divisor+4)^0,w,c
  3674   007136  5A05               	subwfb	(___aomod@dividend+4)^0,f,c
  3675   007138  500E               	movf	(___aomod@divisor+5)^0,w,c
  3676   00713A  5A06               	subwfb	(___aomod@dividend+5)^0,f,c
  3677   00713C  500F               	movf	(___aomod@divisor+6)^0,w,c
  3678   00713E  5A07               	subwfb	(___aomod@dividend+6)^0,f,c
  3679   007140  5010               	movf	(___aomod@divisor+7)^0,w,c
  3680   007142  5A08               	subwfb	(___aomod@dividend+7)^0,f,c
  3681   007144                     l2300:
  3682   007144  90D8               	bcf	status,0,c
  3683   007146  3210               	rrcf	(___aomod@divisor+7)^0,f,c
  3684   007148  320F               	rrcf	(___aomod@divisor+6)^0,f,c
  3685   00714A  320E               	rrcf	(___aomod@divisor+5)^0,f,c
  3686   00714C  320D               	rrcf	(___aomod@divisor+4)^0,f,c
  3687   00714E  320C               	rrcf	(___aomod@divisor+3)^0,f,c
  3688   007150  320B               	rrcf	(___aomod@divisor+2)^0,f,c
  3689   007152  320A               	rrcf	(___aomod@divisor+1)^0,f,c
  3690   007154  3209               	rrcf	___aomod@divisor^0,f,c
  3691   007156  2E11               	decfsz	___aomod@counter^0,f,c
  3692   007158  EF7B  F038         	goto	l2296
  3693   00715C                     l2304:
  3694   00715C  5012               	movf	___aomod@sign^0,w,c
  3695   00715E  B4D8               	btfsc	status,2,c
  3696   007160  EFB4  F038         	goto	u1391
  3697   007164  EFB6  F038         	goto	u1390
  3698   007168                     u1391:
  3699   007168  EFC6  F038         	goto	l2308
  3700   00716C                     u1390:
  3701   00716C  1E08               	comf	(___aomod@dividend+7)^0,f,c
  3702   00716E  1E07               	comf	(___aomod@dividend+6)^0,f,c
  3703   007170  1E06               	comf	(___aomod@dividend+5)^0,f,c
  3704   007172  1E05               	comf	(___aomod@dividend+4)^0,f,c
  3705   007174  1E04               	comf	(___aomod@dividend+3)^0,f,c
  3706   007176  1E03               	comf	(___aomod@dividend+2)^0,f,c
  3707   007178  1E02               	comf	(___aomod@dividend+1)^0,f,c
  3708   00717A  6C01               	negf	___aomod@dividend^0,c
  3709   00717C  0E00               	movlw	0
  3710   00717E  2202               	addwfc	(___aomod@dividend+1)^0,f,c
  3711   007180  2203               	addwfc	(___aomod@dividend+2)^0,f,c
  3712   007182  2204               	addwfc	(___aomod@dividend+3)^0,f,c
  3713   007184  2205               	addwfc	(___aomod@dividend+4)^0,f,c
  3714   007186  2206               	addwfc	(___aomod@dividend+5)^0,f,c
  3715   007188  2207               	addwfc	(___aomod@dividend+6)^0,f,c
  3716   00718A  2208               	addwfc	(___aomod@dividend+7)^0,f,c
  3717   00718C                     l2308:
  3718   00718C  C001  F001         	movff	___aomod@dividend,?___aomod
  3719   007190  C002  F002         	movff	___aomod@dividend+1,?___aomod+1
  3720   007194  C003  F003         	movff	___aomod@dividend+2,?___aomod+2
  3721   007198  C004  F004         	movff	___aomod@dividend+3,?___aomod+3
  3722   00719C  C005  F005         	movff	___aomod@dividend+4,?___aomod+4
  3723   0071A0  C006  F006         	movff	___aomod@dividend+5,?___aomod+5
  3724   0071A4  C007  F007         	movff	___aomod@dividend+6,?___aomod+6
  3725   0071A8  C008  F008         	movff	___aomod@dividend+7,?___aomod+7
  3726   0071AC  0012               	return		;funcret
  3727   0071AE                     __end_of___aomod:
  3728                           	callstack 0
  3729                           
  3730 ;; *************** function ___aodiv *****************
  3731 ;; Defined at:
  3732 ;;		line 9 in file "C:\Program Files\Microchip\xc8\v2.40\pic\sources\c99\common\aodiv.c"
  3733 ;; Parameters:    Size  Location     Type
  3734 ;;  dividend        8    0[COMRAM] long long 
  3735 ;;  divisor         8    8[COMRAM] long long 
  3736 ;; Auto vars:     Size  Location     Type
  3737 ;;  quotient        8   18[COMRAM] long long 
  3738 ;;  sign            1   17[COMRAM] unsigned char 
  3739 ;;  counter         1   16[COMRAM] unsigned char 
  3740 ;; Return value:  Size  Location     Type
  3741 ;;                  8    0[COMRAM] long long 
  3742 ;; Registers used:
  3743 ;;		wreg, fsr2l, fsr2h, status,2, status,0
  3744 ;; Tracked objects:
  3745 ;;		On entry : 0/0
  3746 ;;		On exit  : 0/0
  3747 ;;		Unchanged: 0/0
  3748 ;; Data sizes:     COMRAM   BANK0   BANK1   BANK2   BANK3   BANK4   BANK5   BANK6   BANK7
  3749 ;;      Params:        16       0       0       0       0       0       0       0       0
  3750 ;;      Locals:        10       0       0       0       0       0       0       0       0
  3751 ;;      Temps:          0       0       0       0       0       0       0       0       0
  3752 ;;      Totals:        26       0       0       0       0       0       0       0       0
  3753 ;;Total ram usage:       26 bytes
  3754 ;; Hardware stack levels used: 1
  3755 ;; This function calls:
  3756 ;;		Nothing
  3757 ;; This function is called by:
  3758 ;;		_dtoa
  3759 ;; This function uses a non-reentrant model
  3760 ;;
  3761                           
  3762                           	psect	text11
  3763   0071AE                     __ptext11:
  3764                           	callstack 0
  3765   0071AE                     ___aodiv:
  3766                           	callstack 26
  3767   0071AE  0E00               	movlw	0
  3768   0071B0  6E12               	movwf	___aodiv@sign^0,c
  3769   0071B2  BE10               	btfsc	(___aodiv@divisor+7)^0,7,c
  3770   0071B4  EFE0  F038         	goto	u1270
  3771   0071B8  EFDE  F038         	goto	u1271
  3772   0071BC                     u1271:
  3773   0071BC  EFF2  F038         	goto	l2240
  3774   0071C0                     u1270:
  3775   0071C0  1E10               	comf	(___aodiv@divisor+7)^0,f,c
  3776   0071C2  1E0F               	comf	(___aodiv@divisor+6)^0,f,c
  3777   0071C4  1E0E               	comf	(___aodiv@divisor+5)^0,f,c
  3778   0071C6  1E0D               	comf	(___aodiv@divisor+4)^0,f,c
  3779   0071C8  1E0C               	comf	(___aodiv@divisor+3)^0,f,c
  3780   0071CA  1E0B               	comf	(___aodiv@divisor+2)^0,f,c
  3781   0071CC  1E0A               	comf	(___aodiv@divisor+1)^0,f,c
  3782   0071CE  6C09               	negf	___aodiv@divisor^0,c
  3783   0071D0  0E00               	movlw	0
  3784   0071D2  220A               	addwfc	(___aodiv@divisor+1)^0,f,c
  3785   0071D4  220B               	addwfc	(___aodiv@divisor+2)^0,f,c
  3786   0071D6  220C               	addwfc	(___aodiv@divisor+3)^0,f,c
  3787   0071D8  220D               	addwfc	(___aodiv@divisor+4)^0,f,c
  3788   0071DA  220E               	addwfc	(___aodiv@divisor+5)^0,f,c
  3789   0071DC  220F               	addwfc	(___aodiv@divisor+6)^0,f,c
  3790   0071DE  2210               	addwfc	(___aodiv@divisor+7)^0,f,c
  3791   0071E0  0E01               	movlw	1
  3792   0071E2  6E12               	movwf	___aodiv@sign^0,c
  3793   0071E4                     l2240:
  3794   0071E4  BE08               	btfsc	(___aodiv@dividend+7)^0,7,c
  3795   0071E6  EFF9  F038         	goto	u1280
  3796   0071EA  EFF7  F038         	goto	u1281
  3797   0071EE                     u1281:
  3798   0071EE  EF0B  F039         	goto	l2246
  3799   0071F2                     u1280:
  3800   0071F2  1E08               	comf	(___aodiv@dividend+7)^0,f,c
  3801   0071F4  1E07               	comf	(___aodiv@dividend+6)^0,f,c
  3802   0071F6  1E06               	comf	(___aodiv@dividend+5)^0,f,c
  3803   0071F8  1E05               	comf	(___aodiv@dividend+4)^0,f,c
  3804   0071FA  1E04               	comf	(___aodiv@dividend+3)^0,f,c
  3805   0071FC  1E03               	comf	(___aodiv@dividend+2)^0,f,c
  3806   0071FE  1E02               	comf	(___aodiv@dividend+1)^0,f,c
  3807   007200  6C01               	negf	___aodiv@dividend^0,c
  3808   007202  0E00               	movlw	0
  3809   007204  2202               	addwfc	(___aodiv@dividend+1)^0,f,c
  3810   007206  2203               	addwfc	(___aodiv@dividend+2)^0,f,c
  3811   007208  2204               	addwfc	(___aodiv@dividend+3)^0,f,c
  3812   00720A  2205               	addwfc	(___aodiv@dividend+4)^0,f,c
  3813   00720C  2206               	addwfc	(___aodiv@dividend+5)^0,f,c
  3814   00720E  2207               	addwfc	(___aodiv@dividend+6)^0,f,c
  3815   007210  2208               	addwfc	(___aodiv@dividend+7)^0,f,c
  3816   007212  0E01               	movlw	1
  3817   007214  1A12               	xorwf	___aodiv@sign^0,f,c
  3818   007216                     l2246:
  3819   007216  EE20  F013         	lfsr	2,___aodiv@quotient
  3820   00721A  0E07               	movlw	7
  3821   00721C                     u1291:
  3822   00721C  6ADE               	clrf	postinc2,c
  3823   00721E  06E8               	decf	wreg,f,c
  3824   007220  E2FD               	bc	u1291
  3825   007222  5009               	movf	___aodiv@divisor^0,w,c
  3826   007224  100A               	iorwf	(___aodiv@divisor+1)^0,w,c
  3827   007226  100B               	iorwf	(___aodiv@divisor+2)^0,w,c
  3828   007228  100C               	iorwf	(___aodiv@divisor+3)^0,w,c
  3829   00722A  100D               	iorwf	(___aodiv@divisor+4)^0,w,c
  3830   00722C  100E               	iorwf	(___aodiv@divisor+5)^0,w,c
  3831   00722E  100F               	iorwf	(___aodiv@divisor+6)^0,w,c
  3832   007230  1010               	iorwf	(___aodiv@divisor+7)^0,w,c
  3833   007232  B4D8               	btfsc	status,2,c
  3834   007234  EF1E  F039         	goto	u1301
  3835   007238  EF20  F039         	goto	u1300
  3836   00723C                     u1301:
  3837   00723C  EF72  F039         	goto	l2268
  3838   007240                     u1300:
  3839   007240  0E01               	movlw	1
  3840   007242  6E11               	movwf	___aodiv@counter^0,c
  3841   007244  EF2E  F039         	goto	l2254
  3842   007248                     l2252:
  3843   007248  90D8               	bcf	status,0,c
  3844   00724A  3609               	rlcf	___aodiv@divisor^0,f,c
  3845   00724C  360A               	rlcf	(___aodiv@divisor+1)^0,f,c
  3846   00724E  360B               	rlcf	(___aodiv@divisor+2)^0,f,c
  3847   007250  360C               	rlcf	(___aodiv@divisor+3)^0,f,c
  3848   007252  360D               	rlcf	(___aodiv@divisor+4)^0,f,c
  3849   007254  360E               	rlcf	(___aodiv@divisor+5)^0,f,c
  3850   007256  360F               	rlcf	(___aodiv@divisor+6)^0,f,c
  3851   007258  3610               	rlcf	(___aodiv@divisor+7)^0,f,c
  3852   00725A  2A11               	incf	___aodiv@counter^0,f,c
  3853   00725C                     l2254:
  3854   00725C  AE10               	btfss	(___aodiv@divisor+7)^0,7,c
  3855   00725E  EF33  F039         	goto	u1311
  3856   007262  EF35  F039         	goto	u1310
  3857   007266                     u1311:
  3858   007266  EF24  F039         	goto	l2252
  3859   00726A                     u1310:
  3860   00726A                     l2256:
  3861   00726A  90D8               	bcf	status,0,c
  3862   00726C  3613               	rlcf	___aodiv@quotient^0,f,c
  3863   00726E  3614               	rlcf	(___aodiv@quotient+1)^0,f,c
  3864   007270  3615               	rlcf	(___aodiv@quotient+2)^0,f,c
  3865   007272  3616               	rlcf	(___aodiv@quotient+3)^0,f,c
  3866   007274  3617               	rlcf	(___aodiv@quotient+4)^0,f,c
  3867   007276  3618               	rlcf	(___aodiv@quotient+5)^0,f,c
  3868   007278  3619               	rlcf	(___aodiv@quotient+6)^0,f,c
  3869   00727A  361A               	rlcf	(___aodiv@quotient+7)^0,f,c
  3870   00727C  5009               	movf	___aodiv@divisor^0,w,c
  3871   00727E  5C01               	subwf	___aodiv@dividend^0,w,c
  3872   007280  500A               	movf	(___aodiv@divisor+1)^0,w,c
  3873   007282  5802               	subwfb	(___aodiv@dividend+1)^0,w,c
  3874   007284  500B               	movf	(___aodiv@divisor+2)^0,w,c
  3875   007286  5803               	subwfb	(___aodiv@dividend+2)^0,w,c
  3876   007288  500C               	movf	(___aodiv@divisor+3)^0,w,c
  3877   00728A  5804               	subwfb	(___aodiv@dividend+3)^0,w,c
  3878   00728C  500D               	movf	(___aodiv@divisor+4)^0,w,c
  3879   00728E  5805               	subwfb	(___aodiv@dividend+4)^0,w,c
  3880   007290  500E               	movf	(___aodiv@divisor+5)^0,w,c
  3881   007292  5806               	subwfb	(___aodiv@dividend+5)^0,w,c
  3882   007294  500F               	movf	(___aodiv@divisor+6)^0,w,c
  3883   007296  5807               	subwfb	(___aodiv@dividend+6)^0,w,c
  3884   007298  5010               	movf	(___aodiv@divisor+7)^0,w,c
  3885   00729A  5808               	subwfb	(___aodiv@dividend+7)^0,w,c
  3886   00729C  A0D8               	btfss	status,0,c
  3887   00729E  EF53  F039         	goto	u1321
  3888   0072A2  EF55  F039         	goto	u1320
  3889   0072A6                     u1321:
  3890   0072A6  EF66  F039         	goto	l2264
  3891   0072AA                     u1320:
  3892   0072AA  5009               	movf	___aodiv@divisor^0,w,c
  3893   0072AC  5E01               	subwf	___aodiv@dividend^0,f,c
  3894   0072AE  500A               	movf	(___aodiv@divisor+1)^0,w,c
  3895   0072B0  5A02               	subwfb	(___aodiv@dividend+1)^0,f,c
  3896   0072B2  500B               	movf	(___aodiv@divisor+2)^0,w,c
  3897   0072B4  5A03               	subwfb	(___aodiv@dividend+2)^0,f,c
  3898   0072B6  500C               	movf	(___aodiv@divisor+3)^0,w,c
  3899   0072B8  5A04               	subwfb	(___aodiv@dividend+3)^0,f,c
  3900   0072BA  500D               	movf	(___aodiv@divisor+4)^0,w,c
  3901   0072BC  5A05               	subwfb	(___aodiv@dividend+4)^0,f,c
  3902   0072BE  500E               	movf	(___aodiv@divisor+5)^0,w,c
  3903   0072C0  5A06               	subwfb	(___aodiv@dividend+5)^0,f,c
  3904   0072C2  500F               	movf	(___aodiv@divisor+6)^0,w,c
  3905   0072C4  5A07               	subwfb	(___aodiv@dividend+6)^0,f,c
  3906   0072C6  5010               	movf	(___aodiv@divisor+7)^0,w,c
  3907   0072C8  5A08               	subwfb	(___aodiv@dividend+7)^0,f,c
  3908   0072CA  8013               	bsf	___aodiv@quotient^0,0,c
  3909   0072CC                     l2264:
  3910   0072CC  90D8               	bcf	status,0,c
  3911   0072CE  3210               	rrcf	(___aodiv@divisor+7)^0,f,c
  3912   0072D0  320F               	rrcf	(___aodiv@divisor+6)^0,f,c
  3913   0072D2  320E               	rrcf	(___aodiv@divisor+5)^0,f,c
  3914   0072D4  320D               	rrcf	(___aodiv@divisor+4)^0,f,c
  3915   0072D6  320C               	rrcf	(___aodiv@divisor+3)^0,f,c
  3916   0072D8  320B               	rrcf	(___aodiv@divisor+2)^0,f,c
  3917   0072DA  320A               	rrcf	(___aodiv@divisor+1)^0,f,c
  3918   0072DC  3209               	rrcf	___aodiv@divisor^0,f,c
  3919   0072DE  2E11               	decfsz	___aodiv@counter^0,f,c
  3920   0072E0  EF35  F039         	goto	l2256
  3921   0072E4                     l2268:
  3922   0072E4  5012               	movf	___aodiv@sign^0,w,c
  3923   0072E6  B4D8               	btfsc	status,2,c
  3924   0072E8  EF78  F039         	goto	u1331
  3925   0072EC  EF7A  F039         	goto	u1330
  3926   0072F0                     u1331:
  3927   0072F0  EF8A  F039         	goto	l2272
  3928   0072F4                     u1330:
  3929   0072F4  1E1A               	comf	(___aodiv@quotient+7)^0,f,c
  3930   0072F6  1E19               	comf	(___aodiv@quotient+6)^0,f,c
  3931   0072F8  1E18               	comf	(___aodiv@quotient+5)^0,f,c
  3932   0072FA  1E17               	comf	(___aodiv@quotient+4)^0,f,c
  3933   0072FC  1E16               	comf	(___aodiv@quotient+3)^0,f,c
  3934   0072FE  1E15               	comf	(___aodiv@quotient+2)^0,f,c
  3935   007300  1E14               	comf	(___aodiv@quotient+1)^0,f,c
  3936   007302  6C13               	negf	___aodiv@quotient^0,c
  3937   007304  0E00               	movlw	0
  3938   007306  2214               	addwfc	(___aodiv@quotient+1)^0,f,c
  3939   007308  2215               	addwfc	(___aodiv@quotient+2)^0,f,c
  3940   00730A  2216               	addwfc	(___aodiv@quotient+3)^0,f,c
  3941   00730C  2217               	addwfc	(___aodiv@quotient+4)^0,f,c
  3942   00730E  2218               	addwfc	(___aodiv@quotient+5)^0,f,c
  3943   007310  2219               	addwfc	(___aodiv@quotient+6)^0,f,c
  3944   007312  221A               	addwfc	(___aodiv@quotient+7)^0,f,c
  3945   007314                     l2272:
  3946   007314  C013  F001         	movff	___aodiv@quotient,?___aodiv
  3947   007318  C014  F002         	movff	___aodiv@quotient+1,?___aodiv+1
  3948   00731C  C015  F003         	movff	___aodiv@quotient+2,?___aodiv+2
  3949   007320  C016  F004         	movff	___aodiv@quotient+3,?___aodiv+3
  3950   007324  C017  F005         	movff	___aodiv@quotient+4,?___aodiv+4
  3951   007328  C018  F006         	movff	___aodiv@quotient+5,?___aodiv+5
  3952   00732C  C019  F007         	movff	___aodiv@quotient+6,?___aodiv+6
  3953   007330  C01A  F008         	movff	___aodiv@quotient+7,?___aodiv+7
  3954   007334  0012               	return		;funcret
  3955   007336                     __end_of___aodiv:
  3956                           	callstack 0
  3957                           
  3958 ;; *************** function _Port_Init *****************
  3959 ;; Defined at:
  3960 ;;		line 292 in file "LibreriasPIC/main_v2.c"
  3961 ;; Parameters:    Size  Location     Type
  3962 ;;		None
  3963 ;; Auto vars:     Size  Location     Type
  3964 ;;		None
  3965 ;; Return value:  Size  Location     Type
  3966 ;;                  1    wreg      void 
  3967 ;; Registers used:
  3968 ;;		wreg, status,2
  3969 ;; Tracked objects:
  3970 ;;		On entry : 0/0
  3971 ;;		On exit  : 0/0
  3972 ;;		Unchanged: 0/0
  3973 ;; Data sizes:     COMRAM   BANK0   BANK1   BANK2   BANK3   BANK4   BANK5   BANK6   BANK7
  3974 ;;      Params:         0       0       0       0       0       0       0       0       0
  3975 ;;      Locals:         0       0       0       0       0       0       0       0       0
  3976 ;;      Temps:          0       0       0       0       0       0       0       0       0
  3977 ;;      Totals:         0       0       0       0       0       0       0       0       0
  3978 ;;Total ram usage:        0 bytes
  3979 ;; Hardware stack levels used: 1
  3980 ;; This function calls:
  3981 ;;		Nothing
  3982 ;; This function is called by:
  3983 ;;		_main
  3984 ;; This function uses a non-reentrant model
  3985 ;;
  3986                           
  3987                           	psect	text12
  3988   006A46                     __ptext12:
  3989                           	callstack 0
  3990   006A46                     _Port_Init:
  3991                           	callstack 30
  3992   006A46                     
  3993                           ;LibreriasPIC/main_v2.c: 295:     ANSELD = 0x00;
  3994   006A46  0E00               	movlw	0
  3995   006A48  010F               	movlb	15	; () banked
  3996   006A4A  6F5E               	movwf	94,b	;volatile
  3997   006A4C                     
  3998                           ; BSR set to: 15
  3999                           ;LibreriasPIC/main_v2.c: 300:     ANSELBbits.ANSB0 = 0;
  4000   006A4C  915C               	bcf	92,0,b	;volatile
  4001   006A4E                     
  4002                           ; BSR set to: 15
  4003                           ;LibreriasPIC/main_v2.c: 301:     ANSELBbits.ANSB1 = 0;
  4004   006A4E  935C               	bcf	92,1,b	;volatile
  4005   006A50                     
  4006                           ; BSR set to: 15
  4007                           ;LibreriasPIC/main_v2.c: 302:     ANSELBbits.ANSB2 = 0;
  4008   006A50  955C               	bcf	92,2,b	;volatile
  4009   006A52                     
  4010                           ; BSR set to: 15
  4011                           ;LibreriasPIC/main_v2.c: 303:     ANSELBbits.ANSB3 = 0;
  4012   006A52  975C               	bcf	92,3,b	;volatile
  4013   006A54                     
  4014                           ; BSR set to: 15
  4015                           ;LibreriasPIC/main_v2.c: 305:     TRISBbits.RB0 = 1;
  4016   006A54  8093               	bsf	147,0,c	;volatile
  4017   006A56                     
  4018                           ; BSR set to: 15
  4019                           ;LibreriasPIC/main_v2.c: 306:     TRISBbits.RB1 = 1;
  4020   006A56  8293               	bsf	147,1,c	;volatile
  4021   006A58                     
  4022                           ; BSR set to: 15
  4023                           ;LibreriasPIC/main_v2.c: 307:     TRISBbits.RB2 = 1;
  4024   006A58  8493               	bsf	147,2,c	;volatile
  4025   006A5A                     
  4026                           ; BSR set to: 15
  4027                           ;LibreriasPIC/main_v2.c: 308:     TRISBbits.RB3 = 1;
  4028   006A5A  8693               	bsf	147,3,c	;volatile
  4029   006A5C                     
  4030                           ; BSR set to: 15
  4031                           ;LibreriasPIC/main_v2.c: 310:     ANSELBbits.ANSB4 = 0;
  4032   006A5C  995C               	bcf	92,4,b	;volatile
  4033   006A5E                     
  4034                           ; BSR set to: 15
  4035                           ;LibreriasPIC/main_v2.c: 311:     TRISBbits.RB4 = 0;
  4036   006A5E  9893               	bcf	147,4,c	;volatile
  4037   006A60                     
  4038                           ; BSR set to: 15
  4039                           ;LibreriasPIC/main_v2.c: 315:     ANSELEbits.ANSE2 = 0;
  4040   006A60  955F               	bcf	95,2,b	;volatile
  4041   006A62                     
  4042                           ; BSR set to: 15
  4043                           ;LibreriasPIC/main_v2.c: 316:     TRISEbits.RE2 = 0;
  4044   006A62  9496               	bcf	150,2,c	;volatile
  4045   006A64                     
  4046                           ; BSR set to: 15
  4047                           ;LibreriasPIC/main_v2.c: 317:     ANSELEbits.ANSE0 = 0;
  4048   006A64  915F               	bcf	95,0,b	;volatile
  4049   006A66                     
  4050                           ; BSR set to: 15
  4051                           ;LibreriasPIC/main_v2.c: 318:     TRISEbits.RE0 = 0;
  4052   006A66  9096               	bcf	150,0,c	;volatile
  4053   006A68                     
  4054                           ; BSR set to: 15
  4055                           ;LibreriasPIC/main_v2.c: 320:     LATEbits.LE0 = 0;
  4056   006A68  908D               	bcf	141,0,c	;volatile
  4057   006A6A                     
  4058                           ; BSR set to: 15
  4059                           ;LibreriasPIC/main_v2.c: 321:     LATBbits.LB4 = 0;
  4060   006A6A  988A               	bcf	138,4,c	;volatile
  4061   006A6C                     
  4062                           ; BSR set to: 15
  4063   006A6C  0012               	return		;funcret
  4064   006A6E                     __end_of_Port_Init:
  4065                           	callstack 0
  4066                           
  4067 ;; *************** function _OSCILADOR_Init *****************
  4068 ;; Defined at:
  4069 ;;		line 5 in file "LibreriasPIC/configDevice.c"
  4070 ;; Parameters:    Size  Location     Type
  4071 ;;		None
  4072 ;; Auto vars:     Size  Location     Type
  4073 ;;		None
  4074 ;; Return value:  Size  Location     Type
  4075 ;;                  1    wreg      void 
  4076 ;; Registers used:
  4077 ;;		wreg, status,2
  4078 ;; Tracked objects:
  4079 ;;		On entry : 0/0
  4080 ;;		On exit  : 0/0
  4081 ;;		Unchanged: 0/0
  4082 ;; Data sizes:     COMRAM   BANK0   BANK1   BANK2   BANK3   BANK4   BANK5   BANK6   BANK7
  4083 ;;      Params:         0       0       0       0       0       0       0       0       0
  4084 ;;      Locals:         0       0       0       0       0       0       0       0       0
  4085 ;;      Temps:          0       0       0       0       0       0       0       0       0
  4086 ;;      Totals:         0       0       0       0       0       0       0       0       0
  4087 ;;Total ram usage:        0 bytes
  4088 ;; Hardware stack levels used: 1
  4089 ;; This function calls:
  4090 ;;		Nothing
  4091 ;; This function is called by:
  4092 ;;		_main
  4093 ;; This function uses a non-reentrant model
  4094 ;;
  4095                           
  4096                           	psect	text13
  4097   0069FE                     __ptext13:
  4098                           	callstack 0
  4099   0069FE                     _OSCILADOR_Init:
  4100                           	callstack 30
  4101   0069FE                     
  4102                           ;LibreriasPIC/configDevice.c: 9:     OSCCONbits.IRCF = 0b110;
  4103   0069FE  50D3               	movf	211,w,c	;volatile
  4104   006A00  0B8F               	andlw	-113
  4105   006A02  0960               	iorlw	96
  4106   006A04  6ED3               	movwf	211,c	;volatile
  4107                           
  4108                           ;LibreriasPIC/configDevice.c: 10:     OSCCONbits.SCS = 0b10;
  4109   006A06  50D3               	movf	211,w,c	;volatile
  4110   006A08  0BFC               	andlw	-4
  4111   006A0A  0902               	iorlw	2
  4112   006A0C  6ED3               	movwf	211,c	;volatile
  4113   006A0E  0012               	return		;funcret
  4114   006A10                     __end_of_OSCILADOR_Init:
  4115                           	callstack 0
  4116                           
  4117 ;; *************** function _Lcd_Write_String *****************
  4118 ;; Defined at:
  4119 ;;		line 113 in file "LibreriasPIC/lcd_2x16.c"
  4120 ;; Parameters:    Size  Location     Type
  4121 ;;  a               2    4[COMRAM] PTR unsigned char 
  4122 ;;		 -> STR_35(16), STR_34(16), STR_33(12), STR_32(17), 
  4123 ;;		 -> STR_31(12), STR_30(17), STR_29(13), STR_28(16), 
  4124 ;;		 -> STR_27(17), STR_26(12), STR_25(17), STR_24(13), 
  4125 ;;		 -> STR_23(16), STR_22(17), STR_21(17), STR_20(17), 
  4126 ;;		 -> STR_19(15), STR_18(17), STR_17(15), STR_16(14), 
  4127 ;;		 -> STR_15(9), STR_14(9), STR_13(9), STR_12(8), 
  4128 ;;		 -> STR_11(8), STR_10(9), STR_9(8), STR_8(8), 
  4129 ;;		 -> STR_7(17), STR_6(7), main@strI(20), STR_4(7), 
  4130 ;;		 -> STR_3(7), STR_2(11), STR_1(14), 
  4131 ;; Auto vars:     Size  Location     Type
  4132 ;;  i               2    8[COMRAM] int 
  4133 ;; Return value:  Size  Location     Type
  4134 ;;                  1    wreg      void 
  4135 ;; Registers used:
  4136 ;;		wreg, fsr0l, fsr0h, status,2, status,0, tblptrl, tblptrh, tblptru, cstack
  4137 ;; Tracked objects:
  4138 ;;		On entry : 0/0
  4139 ;;		On exit  : 0/0
  4140 ;;		Unchanged: 0/0
  4141 ;; Data sizes:     COMRAM   BANK0   BANK1   BANK2   BANK3   BANK4   BANK5   BANK6   BANK7
  4142 ;;      Params:         2       0       0       0       0       0       0       0       0
  4143 ;;      Locals:         2       0       0       0       0       0       0       0       0
  4144 ;;      Temps:          2       0       0       0       0       0       0       0       0
  4145 ;;      Totals:         6       0       0       0       0       0       0       0       0
  4146 ;;Total ram usage:        6 bytes
  4147 ;; Hardware stack levels used: 1
  4148 ;; Hardware stack levels required when called: 2
  4149 ;; This function calls:
  4150 ;;		_Lcd_Write_Char
  4151 ;; This function is called by:
  4152 ;;		_main
  4153 ;;		_Message_Lcd_ok
  4154 ;; This function uses a non-reentrant model
  4155 ;;
  4156                           
  4157                           	psect	text14
  4158   006DB4                     __ptext14:
  4159                           	callstack 0
  4160   006DB4                     _Lcd_Write_String:
  4161                           	callstack 28
  4162   006DB4                     
  4163                           ;LibreriasPIC/lcd_2x16.c: 113: void Lcd_Write_String(unsigned char *a);LibreriasPIC/lcd_
      +                          2x16.c: 114: {;LibreriasPIC/lcd_2x16.c: 115:  int i;;LibreriasPIC/lcd_2x16.c: 116:  for(
      +                          i=0;a[i]!='\0';i++)
  4164   006DB4  0E00               	movlw	0
  4165   006DB6  6E0A               	movwf	(Lcd_Write_String@i+1)^0,c
  4166   006DB8  0E00               	movlw	0
  4167   006DBA  6E09               	movwf	Lcd_Write_String@i^0,c
  4168   006DBC  EFFA  F036         	goto	l2578
  4169   006DC0                     l2574:
  4170                           
  4171                           ;LibreriasPIC/lcd_2x16.c: 117:     Lcd_Write_Char(a[i]);
  4172   006DC0  5009               	movf	Lcd_Write_String@i^0,w,c
  4173   006DC2  2405               	addwf	Lcd_Write_String@a^0,w,c
  4174   006DC4  6E07               	movwf	??_Lcd_Write_String^0,c
  4175   006DC6  500A               	movf	(Lcd_Write_String@i+1)^0,w,c
  4176   006DC8  2006               	addwfc	(Lcd_Write_String@a+1)^0,w,c
  4177   006DCA  6E08               	movwf	(??_Lcd_Write_String+1)^0,c
  4178   006DCC  C007  FFF6         	movff	??_Lcd_Write_String,tblptrl
  4179   006DD0  C008  FFF7         	movff	??_Lcd_Write_String+1,tblptrh
  4180   006DD4  6AF8               	clrf	tblptru,c
  4181   006DD6  0E07               	movlw	(high __ramtop+-1)
  4182   006DD8  64F7               	cpfsgt	tblptrh,c
  4183   006DDA  D003               	bra	u1717
  4184   006DDC  0008               	tblrd		*
  4185   006DDE  50F5               	movf	tablat,w,c
  4186   006DE0  D005               	bra	u1710
  4187   006DE2                     u1717:
  4188   006DE2  CFF6 FFE9          	movff	tblptrl,fsr0l
  4189   006DE6  CFF7 FFEA          	movff	tblptrh,fsr0h
  4190   006DEA  50EF               	movf	indf0,w,c
  4191   006DEC                     u1710:
  4192   006DEC  EC52  F035         	call	_Lcd_Write_Char
  4193   006DF0  4A09               	infsnz	Lcd_Write_String@i^0,f,c
  4194   006DF2  2A0A               	incf	(Lcd_Write_String@i+1)^0,f,c
  4195   006DF4                     l2578:
  4196   006DF4  5009               	movf	Lcd_Write_String@i^0,w,c
  4197   006DF6  2405               	addwf	Lcd_Write_String@a^0,w,c
  4198   006DF8  6E07               	movwf	??_Lcd_Write_String^0,c
  4199   006DFA  500A               	movf	(Lcd_Write_String@i+1)^0,w,c
  4200   006DFC  2006               	addwfc	(Lcd_Write_String@a+1)^0,w,c
  4201   006DFE  6E08               	movwf	(??_Lcd_Write_String+1)^0,c
  4202   006E00  C007  FFF6         	movff	??_Lcd_Write_String,tblptrl
  4203   006E04  C008  FFF7         	movff	??_Lcd_Write_String+1,tblptrh
  4204   006E08  6AF8               	clrf	tblptru,c
  4205   006E0A  0E07               	movlw	(high __ramtop+-1)
  4206   006E0C  64F7               	cpfsgt	tblptrh,c
  4207   006E0E  D003               	bra	u1727
  4208   006E10  0008               	tblrd		*
  4209   006E12  50F5               	movf	tablat,w,c
  4210   006E14  D005               	bra	u1720
  4211   006E16                     u1727:
  4212   006E16  CFF6 FFE9          	movff	tblptrl,fsr0l
  4213   006E1A  CFF7 FFEA          	movff	tblptrh,fsr0h
  4214   006E1E  50EF               	movf	indf0,w,c
  4215   006E20                     u1720:
  4216   006E20  0900               	iorlw	0
  4217   006E22  A4D8               	btfss	status,2,c
  4218   006E24  EF16  F037         	goto	u1731
  4219   006E28  EF18  F037         	goto	u1730
  4220   006E2C                     u1731:
  4221   006E2C  EFE0  F036         	goto	l2574
  4222   006E30                     u1730:
  4223   006E30  0012               	return		;funcret
  4224   006E32                     __end_of_Lcd_Write_String:
  4225                           	callstack 0
  4226                           
  4227 ;; *************** function _Lcd_Write_Char *****************
  4228 ;; Defined at:
  4229 ;;		line 96 in file "LibreriasPIC/lcd_2x16.c"
  4230 ;; Parameters:    Size  Location     Type
  4231 ;;  a               1    wreg     unsigned char 
  4232 ;; Auto vars:     Size  Location     Type
  4233 ;;  a               1    3[COMRAM] unsigned char 
  4234 ;;  y               1    2[COMRAM] unsigned char 
  4235 ;;  temp            1    1[COMRAM] unsigned char 
  4236 ;; Return value:  Size  Location     Type
  4237 ;;                  1    wreg      void 
  4238 ;; Registers used:
  4239 ;;		wreg, status,2, status,0, cstack
  4240 ;; Tracked objects:
  4241 ;;		On entry : 0/0
  4242 ;;		On exit  : 0/0
  4243 ;;		Unchanged: 0/0
  4244 ;; Data sizes:     COMRAM   BANK0   BANK1   BANK2   BANK3   BANK4   BANK5   BANK6   BANK7
  4245 ;;      Params:         0       0       0       0       0       0       0       0       0
  4246 ;;      Locals:         3       0       0       0       0       0       0       0       0
  4247 ;;      Temps:          0       0       0       0       0       0       0       0       0
  4248 ;;      Totals:         3       0       0       0       0       0       0       0       0
  4249 ;;Total ram usage:        3 bytes
  4250 ;; Hardware stack levels used: 1
  4251 ;; Hardware stack levels required when called: 1
  4252 ;; This function calls:
  4253 ;;		_Lcd_Port
  4254 ;; This function is called by:
  4255 ;;		_Lcd_Write_String
  4256 ;; This function uses a non-reentrant model
  4257 ;;
  4258                           
  4259                           	psect	text15
  4260   006AA4                     __ptext15:
  4261                           	callstack 0
  4262   006AA4                     _Lcd_Write_Char:
  4263                           	callstack 28
  4264                           
  4265                           ;incstack = 0
  4266                           ;Lcd_Write_Char@a stored from wreg
  4267   006AA4  6E04               	movwf	Lcd_Write_Char@a^0,c
  4268   006AA6                     
  4269                           ;LibreriasPIC/lcd_2x16.c: 96: void Lcd_Write_Char(unsigned char a);LibreriasPIC/lcd_2x16
      +                          .c: 97: {;LibreriasPIC/lcd_2x16.c: 98:    char temp,y;;LibreriasPIC/lcd_2x16.c: 99:    t
      +                          emp = a&0x0F;
  4270   006AA6  5004               	movf	Lcd_Write_Char@a^0,w,c
  4271   006AA8  0B0F               	andlw	15
  4272   006AAA  6E02               	movwf	Lcd_Write_Char@temp^0,c
  4273                           
  4274                           ;LibreriasPIC/lcd_2x16.c: 100:    y = a&0xF0;
  4275   006AAC  5004               	movf	Lcd_Write_Char@a^0,w,c
  4276   006AAE  0BF0               	andlw	240
  4277   006AB0  6E03               	movwf	Lcd_Write_Char@y^0,c
  4278   006AB2                     
  4279                           ;LibreriasPIC/lcd_2x16.c: 101:    PORTD |= (1<<2);
  4280   006AB2  8483               	bsf	131,2,c	;volatile
  4281   006AB4                     
  4282                           ;LibreriasPIC/lcd_2x16.c: 102:    Lcd_Port(y>>4);
  4283   006AB4  3803               	swapf	Lcd_Write_Char@y^0,w,c
  4284   006AB6  0B0F               	andlw	15
  4285   006AB8  EC00  F036         	call	_Lcd_Port
  4286   006ABC                     
  4287                           ;LibreriasPIC/lcd_2x16.c: 103:    PORTD |= (1<<3);
  4288   006ABC  8683               	bsf	131,3,c	;volatile
  4289   006ABE                     
  4290                           ;LibreriasPIC/lcd_2x16.c: 104:    _delay((unsigned long)((40)*(8000000UL/4000000.0)));
  4291   006ABE  0E1A               	movlw	26
  4292   006AC0                     u2387:
  4293   006AC0  2EE8               	decfsz	wreg,f,c
  4294   006AC2  D7FE               	bra	u2387
  4295   006AC4  D000               	nop2	
  4296   006AC6                     
  4297                           ;LibreriasPIC/lcd_2x16.c: 105:    PORTD &= ~(1<<3);
  4298   006AC6  9683               	bcf	131,3,c	;volatile
  4299                           
  4300                           ;LibreriasPIC/lcd_2x16.c: 106:    Lcd_Port(temp);
  4301   006AC8  5002               	movf	Lcd_Write_Char@temp^0,w,c
  4302   006ACA  EC00  F036         	call	_Lcd_Port
  4303   006ACE                     
  4304                           ;LibreriasPIC/lcd_2x16.c: 107:    PORTD |= (1<<3);
  4305   006ACE  8683               	bsf	131,3,c	;volatile
  4306   006AD0                     
  4307                           ;LibreriasPIC/lcd_2x16.c: 108:    _delay((unsigned long)((40)*(8000000UL/4000000.0)));
  4308   006AD0  0E1A               	movlw	26
  4309   006AD2                     u2397:
  4310   006AD2  2EE8               	decfsz	wreg,f,c
  4311   006AD4  D7FE               	bra	u2397
  4312   006AD6  D000               	nop2	
  4313   006AD8                     
  4314                           ;LibreriasPIC/lcd_2x16.c: 109:    PORTD &= ~(1<<3);
  4315   006AD8  9683               	bcf	131,3,c	;volatile
  4316   006ADA  0012               	return		;funcret
  4317   006ADC                     __end_of_Lcd_Write_Char:
  4318                           	callstack 0
  4319                           
  4320 ;; *************** function _Lcd_Set_Cursor *****************
  4321 ;; Defined at:
  4322 ;;		line 50 in file "LibreriasPIC/lcd_2x16.c"
  4323 ;; Parameters:    Size  Location     Type
  4324 ;;  a               1    wreg     unsigned char 
  4325 ;;  b               1    3[COMRAM] unsigned char 
  4326 ;; Auto vars:     Size  Location     Type
  4327 ;;  a               1    4[COMRAM] unsigned char 
  4328 ;;  temp            1    7[COMRAM] unsigned char 
  4329 ;;  y               1    6[COMRAM] unsigned char 
  4330 ;;  z               1    5[COMRAM] unsigned char 
  4331 ;; Return value:  Size  Location     Type
  4332 ;;                  1    wreg      void 
  4333 ;; Registers used:
  4334 ;;		wreg, status,2, status,0, cstack
  4335 ;; Tracked objects:
  4336 ;;		On entry : 0/0
  4337 ;;		On exit  : 0/0
  4338 ;;		Unchanged: 0/0
  4339 ;; Data sizes:     COMRAM   BANK0   BANK1   BANK2   BANK3   BANK4   BANK5   BANK6   BANK7
  4340 ;;      Params:         1       0       0       0       0       0       0       0       0
  4341 ;;      Locals:         4       0       0       0       0       0       0       0       0
  4342 ;;      Temps:          0       0       0       0       0       0       0       0       0
  4343 ;;      Totals:         5       0       0       0       0       0       0       0       0
  4344 ;;Total ram usage:        5 bytes
  4345 ;; Hardware stack levels used: 1
  4346 ;; Hardware stack levels required when called: 2
  4347 ;; This function calls:
  4348 ;;		_Lcd_Cmd
  4349 ;; This function is called by:
  4350 ;;		_main
  4351 ;;		_Message_Lcd_ok
  4352 ;; This function uses a non-reentrant model
  4353 ;;
  4354                           
  4355                           	psect	text16
  4356   006C5C                     __ptext16:
  4357                           	callstack 0
  4358   006C5C                     _Lcd_Set_Cursor:
  4359                           	callstack 28
  4360                           
  4361                           ;incstack = 0
  4362                           ;Lcd_Set_Cursor@a stored from wreg
  4363   006C5C  6E05               	movwf	Lcd_Set_Cursor@a^0,c
  4364   006C5E                     
  4365                           ;LibreriasPIC/lcd_2x16.c: 50: void Lcd_Set_Cursor(unsigned char a, unsigned char b);Libr
      +                          eriasPIC/lcd_2x16.c: 51: {;LibreriasPIC/lcd_2x16.c: 52:  char temp,z,y;;LibreriasPIC/lcd
      +                          _2x16.c: 53:  if(a == 1)
  4366   006C5E  0405               	decf	Lcd_Set_Cursor@a^0,w,c
  4367   006C60  A4D8               	btfss	status,2,c
  4368   006C62  EF35  F036         	goto	u1691
  4369   006C66  EF37  F036         	goto	u1690
  4370   006C6A                     u1691:
  4371   006C6A  EF48  F036         	goto	l2534
  4372   006C6E                     u1690:
  4373   006C6E                     
  4374                           ;LibreriasPIC/lcd_2x16.c: 54:  {;LibreriasPIC/lcd_2x16.c: 55:    temp = 0x80 + b - 1;
  4375   006C6E  5004               	movf	Lcd_Set_Cursor@b^0,w,c
  4376   006C70  0F7F               	addlw	127
  4377   006C72  6E08               	movwf	Lcd_Set_Cursor@temp^0,c
  4378                           
  4379                           ;LibreriasPIC/lcd_2x16.c: 56:   z = temp>>4;
  4380   006C74  3808               	swapf	Lcd_Set_Cursor@temp^0,w,c
  4381   006C76  0B0F               	andlw	15
  4382   006C78  6E06               	movwf	Lcd_Set_Cursor@z^0,c
  4383                           
  4384                           ;LibreriasPIC/lcd_2x16.c: 57:   y = temp & 0x0F;
  4385   006C7A  5008               	movf	Lcd_Set_Cursor@temp^0,w,c
  4386   006C7C  0B0F               	andlw	15
  4387   006C7E  6E07               	movwf	Lcd_Set_Cursor@y^0,c
  4388   006C80                     
  4389                           ;LibreriasPIC/lcd_2x16.c: 58:   Lcd_Cmd(z);
  4390   006C80  5006               	movf	Lcd_Set_Cursor@z^0,w,c
  4391   006C82  EC13  F035         	call	_Lcd_Cmd
  4392   006C86                     
  4393                           ;LibreriasPIC/lcd_2x16.c: 59:   Lcd_Cmd(y);
  4394   006C86  5007               	movf	Lcd_Set_Cursor@y^0,w,c
  4395   006C88  EC13  F035         	call	_Lcd_Cmd
  4396                           
  4397                           ;LibreriasPIC/lcd_2x16.c: 60:  }
  4398   006C8C  EF60  F036         	goto	l214
  4399   006C90                     l2534:
  4400   006C90  0E02               	movlw	2
  4401   006C92  1805               	xorwf	Lcd_Set_Cursor@a^0,w,c
  4402   006C94  A4D8               	btfss	status,2,c
  4403   006C96  EF4F  F036         	goto	u1701
  4404   006C9A  EF51  F036         	goto	u1700
  4405   006C9E                     u1701:
  4406   006C9E  EF60  F036         	goto	l214
  4407   006CA2                     u1700:
  4408   006CA2                     
  4409                           ;LibreriasPIC/lcd_2x16.c: 62:  {;LibreriasPIC/lcd_2x16.c: 63:   temp = 0xC0 + b - 1;
  4410   006CA2  5004               	movf	Lcd_Set_Cursor@b^0,w,c
  4411   006CA4  0FBF               	addlw	191
  4412   006CA6  6E08               	movwf	Lcd_Set_Cursor@temp^0,c
  4413                           
  4414                           ;LibreriasPIC/lcd_2x16.c: 64:   z = temp>>4;
  4415   006CA8  3808               	swapf	Lcd_Set_Cursor@temp^0,w,c
  4416   006CAA  0B0F               	andlw	15
  4417   006CAC  6E06               	movwf	Lcd_Set_Cursor@z^0,c
  4418                           
  4419                           ;LibreriasPIC/lcd_2x16.c: 65:   y = temp & 0x0F;
  4420   006CAE  5008               	movf	Lcd_Set_Cursor@temp^0,w,c
  4421   006CB0  0B0F               	andlw	15
  4422   006CB2  6E07               	movwf	Lcd_Set_Cursor@y^0,c
  4423   006CB4                     
  4424                           ;LibreriasPIC/lcd_2x16.c: 66:   Lcd_Cmd(z);
  4425   006CB4  5006               	movf	Lcd_Set_Cursor@z^0,w,c
  4426   006CB6  EC13  F035         	call	_Lcd_Cmd
  4427   006CBA                     
  4428                           ;LibreriasPIC/lcd_2x16.c: 67:   Lcd_Cmd(y);
  4429   006CBA  5007               	movf	Lcd_Set_Cursor@y^0,w,c
  4430   006CBC  EC13  F035         	call	_Lcd_Cmd
  4431   006CC0                     l214:
  4432   006CC0  0012               	return		;funcret
  4433   006CC2                     __end_of_Lcd_Set_Cursor:
  4434                           	callstack 0
  4435                           
  4436 ;; *************** function _Lcd_Init *****************
  4437 ;; Defined at:
  4438 ;;		line 72 in file "LibreriasPIC/lcd_2x16.c"
  4439 ;; Parameters:    Size  Location     Type
  4440 ;;		None
  4441 ;; Auto vars:     Size  Location     Type
  4442 ;;		None
  4443 ;; Return value:  Size  Location     Type
  4444 ;;                  1    wreg      void 
  4445 ;; Registers used:
  4446 ;;		wreg, status,2, status,0, cstack
  4447 ;; Tracked objects:
  4448 ;;		On entry : 0/0
  4449 ;;		On exit  : 0/0
  4450 ;;		Unchanged: 0/0
  4451 ;; Data sizes:     COMRAM   BANK0   BANK1   BANK2   BANK3   BANK4   BANK5   BANK6   BANK7
  4452 ;;      Params:         0       0       0       0       0       0       0       0       0
  4453 ;;      Locals:         0       0       0       0       0       0       0       0       0
  4454 ;;      Temps:          1       0       0       0       0       0       0       0       0
  4455 ;;      Totals:         1       0       0       0       0       0       0       0       0
  4456 ;;Total ram usage:        1 bytes
  4457 ;; Hardware stack levels used: 1
  4458 ;; Hardware stack levels required when called: 2
  4459 ;; This function calls:
  4460 ;;		_Lcd_Cmd
  4461 ;;		_Lcd_Port
  4462 ;; This function is called by:
  4463 ;;		_main
  4464 ;; This function uses a non-reentrant model
  4465 ;;
  4466                           
  4467                           	psect	text17
  4468   006CC2                     __ptext17:
  4469                           	callstack 0
  4470   006CC2                     _Lcd_Init:
  4471                           	callstack 28
  4472   006CC2                     
  4473                           ;LibreriasPIC/lcd_2x16.c: 75:  TRISD &= ~(0xF0);
  4474   006CC2  0E0F               	movlw	15
  4475   006CC4  1695               	andwf	149,f,c	;volatile
  4476                           
  4477                           ;LibreriasPIC/lcd_2x16.c: 76:  TRISD &= ~((1<<3)|(1<<2));
  4478   006CC6  0EF3               	movlw	243
  4479   006CC8  1695               	andwf	149,f,c	;volatile
  4480   006CCA                     
  4481                           ;LibreriasPIC/lcd_2x16.c: 78:  Lcd_Port(0x00);
  4482   006CCA  0E00               	movlw	0
  4483   006CCC  EC00  F036         	call	_Lcd_Port
  4484   006CD0                     
  4485                           ;LibreriasPIC/lcd_2x16.c: 79:  _delay((unsigned long)((20)*(8000000UL/4000.0)));
  4486   006CD0  0E34               	movlw	52
  4487   006CD2  6E04               	movwf	??_Lcd_Init^0,c
  4488   006CD4  0EF2               	movlw	242
  4489   006CD6                     u2407:
  4490   006CD6  2EE8               	decfsz	wreg,f,c
  4491   006CD8  D7FE               	bra	u2407
  4492   006CDA  2E04               	decfsz	??_Lcd_Init^0,f,c
  4493   006CDC  D7FC               	bra	u2407
  4494   006CDE                     
  4495                           ;LibreriasPIC/lcd_2x16.c: 80:  Lcd_Cmd(0x03);
  4496   006CDE  0E03               	movlw	3
  4497   006CE0  EC13  F035         	call	_Lcd_Cmd
  4498   006CE4                     
  4499                           ;LibreriasPIC/lcd_2x16.c: 81:  _delay((unsigned long)((5)*(8000000UL/4000.0)));
  4500   006CE4  0E0D               	movlw	13
  4501   006CE6  6E04               	movwf	??_Lcd_Init^0,c
  4502   006CE8  0EFC               	movlw	252
  4503   006CEA                     u2417:
  4504   006CEA  2EE8               	decfsz	wreg,f,c
  4505   006CEC  D7FE               	bra	u2417
  4506   006CEE  2E04               	decfsz	??_Lcd_Init^0,f,c
  4507   006CF0  D7FC               	bra	u2417
  4508   006CF2                     
  4509                           ;LibreriasPIC/lcd_2x16.c: 82:  Lcd_Cmd(0x03);
  4510   006CF2  0E03               	movlw	3
  4511   006CF4  EC13  F035         	call	_Lcd_Cmd
  4512   006CF8                     
  4513                           ;LibreriasPIC/lcd_2x16.c: 83:  _delay((unsigned long)((11)*(8000000UL/4000.0)));
  4514   006CF8  0E1D               	movlw	29
  4515   006CFA  6E04               	movwf	??_Lcd_Init^0,c
  4516   006CFC  0E91               	movlw	145
  4517   006CFE                     u2427:
  4518   006CFE  2EE8               	decfsz	wreg,f,c
  4519   006D00  D7FE               	bra	u2427
  4520   006D02  2E04               	decfsz	??_Lcd_Init^0,f,c
  4521   006D04  D7FC               	bra	u2427
  4522   006D06  F000               	nop	
  4523   006D08                     
  4524                           ;LibreriasPIC/lcd_2x16.c: 84:  Lcd_Cmd(0x03);
  4525   006D08  0E03               	movlw	3
  4526   006D0A  EC13  F035         	call	_Lcd_Cmd
  4527   006D0E                     
  4528                           ;LibreriasPIC/lcd_2x16.c: 86:  Lcd_Cmd(0x02);
  4529   006D0E  0E02               	movlw	2
  4530   006D10  EC13  F035         	call	_Lcd_Cmd
  4531   006D14                     
  4532                           ;LibreriasPIC/lcd_2x16.c: 87:  Lcd_Cmd(0x02);
  4533   006D14  0E02               	movlw	2
  4534   006D16  EC13  F035         	call	_Lcd_Cmd
  4535   006D1A                     
  4536                           ;LibreriasPIC/lcd_2x16.c: 88:  Lcd_Cmd(0x08);
  4537   006D1A  0E08               	movlw	8
  4538   006D1C  EC13  F035         	call	_Lcd_Cmd
  4539   006D20                     
  4540                           ;LibreriasPIC/lcd_2x16.c: 89:  Lcd_Cmd(0x00);
  4541   006D20  0E00               	movlw	0
  4542   006D22  EC13  F035         	call	_Lcd_Cmd
  4543   006D26                     
  4544                           ;LibreriasPIC/lcd_2x16.c: 90:  Lcd_Cmd(0x0C);
  4545   006D26  0E0C               	movlw	12
  4546   006D28  EC13  F035         	call	_Lcd_Cmd
  4547   006D2C                     
  4548                           ;LibreriasPIC/lcd_2x16.c: 91:  Lcd_Cmd(0x00);
  4549   006D2C  0E00               	movlw	0
  4550   006D2E  EC13  F035         	call	_Lcd_Cmd
  4551   006D32                     
  4552                           ;LibreriasPIC/lcd_2x16.c: 92:  Lcd_Cmd(0x06);
  4553   006D32  0E06               	movlw	6
  4554   006D34  EC13  F035         	call	_Lcd_Cmd
  4555   006D38  0012               	return		;funcret
  4556   006D3A                     __end_of_Lcd_Init:
  4557                           	callstack 0
  4558                           
  4559 ;; *************** function _Lcd_Clear *****************
  4560 ;; Defined at:
  4561 ;;		line 43 in file "LibreriasPIC/lcd_2x16.c"
  4562 ;; Parameters:    Size  Location     Type
  4563 ;;		None
  4564 ;; Auto vars:     Size  Location     Type
  4565 ;;		None
  4566 ;; Return value:  Size  Location     Type
  4567 ;;                  1    wreg      void 
  4568 ;; Registers used:
  4569 ;;		wreg, status,2, status,0, cstack
  4570 ;; Tracked objects:
  4571 ;;		On entry : 0/0
  4572 ;;		On exit  : 0/0
  4573 ;;		Unchanged: 0/0
  4574 ;; Data sizes:     COMRAM   BANK0   BANK1   BANK2   BANK3   BANK4   BANK5   BANK6   BANK7
  4575 ;;      Params:         0       0       0       0       0       0       0       0       0
  4576 ;;      Locals:         0       0       0       0       0       0       0       0       0
  4577 ;;      Temps:          0       0       0       0       0       0       0       0       0
  4578 ;;      Totals:         0       0       0       0       0       0       0       0       0
  4579 ;;Total ram usage:        0 bytes
  4580 ;; Hardware stack levels used: 1
  4581 ;; Hardware stack levels required when called: 2
  4582 ;; This function calls:
  4583 ;;		_Lcd_Cmd
  4584 ;; This function is called by:
  4585 ;;		_main
  4586 ;; This function uses a non-reentrant model
  4587 ;;
  4588                           
  4589                           	psect	text18
  4590   0069E0                     __ptext18:
  4591                           	callstack 0
  4592   0069E0                     _Lcd_Clear:
  4593                           	callstack 28
  4594   0069E0                     
  4595                           ;LibreriasPIC/lcd_2x16.c: 45:  Lcd_Cmd(0);
  4596   0069E0  0E00               	movlw	0
  4597   0069E2  EC13  F035         	call	_Lcd_Cmd
  4598                           
  4599                           ;LibreriasPIC/lcd_2x16.c: 46:  Lcd_Cmd(1);
  4600   0069E6  0E01               	movlw	1
  4601   0069E8  EC13  F035         	call	_Lcd_Cmd
  4602   0069EC  0012               	return		;funcret
  4603   0069EE                     __end_of_Lcd_Clear:
  4604                           	callstack 0
  4605                           
  4606 ;; *************** function _Lcd_Cmd *****************
  4607 ;; Defined at:
  4608 ;;		line 33 in file "LibreriasPIC/lcd_2x16.c"
  4609 ;; Parameters:    Size  Location     Type
  4610 ;;  a               1    wreg     unsigned char 
  4611 ;; Auto vars:     Size  Location     Type
  4612 ;;  a               1    2[COMRAM] unsigned char 
  4613 ;; Return value:  Size  Location     Type
  4614 ;;                  1    wreg      void 
  4615 ;; Registers used:
  4616 ;;		wreg, status,2, status,0, cstack
  4617 ;; Tracked objects:
  4618 ;;		On entry : 0/0
  4619 ;;		On exit  : 0/0
  4620 ;;		Unchanged: 0/0
  4621 ;; Data sizes:     COMRAM   BANK0   BANK1   BANK2   BANK3   BANK4   BANK5   BANK6   BANK7
  4622 ;;      Params:         0       0       0       0       0       0       0       0       0
  4623 ;;      Locals:         1       0       0       0       0       0       0       0       0
  4624 ;;      Temps:          1       0       0       0       0       0       0       0       0
  4625 ;;      Totals:         2       0       0       0       0       0       0       0       0
  4626 ;;Total ram usage:        2 bytes
  4627 ;; Hardware stack levels used: 1
  4628 ;; Hardware stack levels required when called: 1
  4629 ;; This function calls:
  4630 ;;		_Lcd_Port
  4631 ;; This function is called by:
  4632 ;;		_Lcd_Clear
  4633 ;;		_Lcd_Set_Cursor
  4634 ;;		_Lcd_Init
  4635 ;;		_Lcd_Shift_Right
  4636 ;;		_Lcd_Shift_Left
  4637 ;; This function uses a non-reentrant model
  4638 ;;
  4639                           
  4640                           	psect	text19
  4641   006A26                     __ptext19:
  4642                           	callstack 0
  4643   006A26                     _Lcd_Cmd:
  4644                           	callstack 28
  4645                           
  4646                           ;incstack = 0
  4647                           ;Lcd_Cmd@a stored from wreg
  4648   006A26  6E03               	movwf	Lcd_Cmd@a^0,c
  4649   006A28                     
  4650                           ;LibreriasPIC/lcd_2x16.c: 33: void Lcd_Cmd(unsigned char a);LibreriasPIC/lcd_2x16.c: 34:
      +                           {;LibreriasPIC/lcd_2x16.c: 35:  PORTD &= ~(1<<2);
  4651   006A28  9483               	bcf	131,2,c	;volatile
  4652   006A2A                     
  4653                           ;LibreriasPIC/lcd_2x16.c: 36:  Lcd_Port(a);
  4654   006A2A  5003               	movf	Lcd_Cmd@a^0,w,c
  4655   006A2C  EC00  F036         	call	_Lcd_Port
  4656   006A30                     
  4657                           ;LibreriasPIC/lcd_2x16.c: 37:  PORTD |= (1<<3);
  4658   006A30  8683               	bsf	131,3,c	;volatile
  4659   006A32                     
  4660                           ;LibreriasPIC/lcd_2x16.c: 38:     _delay((unsigned long)((4)*(8000000UL/4000.0)));
  4661   006A32  0E0B               	movlw	11
  4662   006A34  6E02               	movwf	??_Lcd_Cmd^0,c
  4663   006A36  0E62               	movlw	98
  4664   006A38                     u2437:
  4665   006A38  2EE8               	decfsz	wreg,f,c
  4666   006A3A  D7FE               	bra	u2437
  4667   006A3C  2E02               	decfsz	??_Lcd_Cmd^0,f,c
  4668   006A3E  D7FC               	bra	u2437
  4669   006A40  D000               	nop2	
  4670   006A42                     
  4671                           ;LibreriasPIC/lcd_2x16.c: 39:  PORTD &= ~(1<<3);
  4672   006A42  9683               	bcf	131,3,c	;volatile
  4673   006A44  0012               	return		;funcret
  4674   006A46                     __end_of_Lcd_Cmd:
  4675                           	callstack 0
  4676                           
  4677 ;; *************** function _Lcd_Port *****************
  4678 ;; Defined at:
  4679 ;;		line 5 in file "LibreriasPIC/lcd_2x16.c"
  4680 ;; Parameters:    Size  Location     Type
  4681 ;;  a               1    wreg     unsigned char 
  4682 ;; Auto vars:     Size  Location     Type
  4683 ;;  a               1    0[COMRAM] unsigned char 
  4684 ;; Return value:  Size  Location     Type
  4685 ;;                  1    wreg      void 
  4686 ;; Registers used:
  4687 ;;		wreg, status,2, status,0
  4688 ;; Tracked objects:
  4689 ;;		On entry : 0/0
  4690 ;;		On exit  : 0/0
  4691 ;;		Unchanged: 0/0
  4692 ;; Data sizes:     COMRAM   BANK0   BANK1   BANK2   BANK3   BANK4   BANK5   BANK6   BANK7
  4693 ;;      Params:         0       0       0       0       0       0       0       0       0
  4694 ;;      Locals:         1       0       0       0       0       0       0       0       0
  4695 ;;      Temps:          0       0       0       0       0       0       0       0       0
  4696 ;;      Totals:         1       0       0       0       0       0       0       0       0
  4697 ;;Total ram usage:        1 bytes
  4698 ;; Hardware stack levels used: 1
  4699 ;; This function calls:
  4700 ;;		Nothing
  4701 ;; This function is called by:
  4702 ;;		_Lcd_Cmd
  4703 ;;		_Lcd_Init
  4704 ;;		_Lcd_Write_Char
  4705 ;; This function uses a non-reentrant model
  4706 ;;
  4707                           
  4708                           	psect	text20
  4709   006C00                     __ptext20:
  4710                           	callstack 0
  4711   006C00                     _Lcd_Port:
  4712                           	callstack 28
  4713                           
  4714                           ;incstack = 0
  4715                           ;Lcd_Port@a stored from wreg
  4716   006C00  6E01               	movwf	Lcd_Port@a^0,c
  4717   006C02                     
  4718                           ;LibreriasPIC/lcd_2x16.c: 5: void Lcd_Port(unsigned char a);LibreriasPIC/lcd_2x16.c: 6: 
      +                          {;LibreriasPIC/lcd_2x16.c: 7:  if(a & 1)
  4719   006C02  A001               	btfss	Lcd_Port@a^0,0,c
  4720   006C04  EF06  F036         	goto	u1531
  4721   006C08  EF08  F036         	goto	u1530
  4722   006C0C                     u1531:
  4723   006C0C  EF0B  F036         	goto	l2386
  4724   006C10                     u1530:
  4725   006C10                     
  4726                           ;LibreriasPIC/lcd_2x16.c: 9:   LATD |= (1<<4);
  4727   006C10  888C               	bsf	140,4,c	;volatile
  4728   006C12  EF0C  F036         	goto	l2388
  4729   006C16                     l2386:
  4730                           
  4731                           ;LibreriasPIC/lcd_2x16.c: 12:   LATD &= ~(1<<4);
  4732   006C16  988C               	bcf	140,4,c	;volatile
  4733   006C18                     l2388:
  4734                           
  4735                           ;LibreriasPIC/lcd_2x16.c: 13:  if(a & 2)
  4736   006C18  A201               	btfss	Lcd_Port@a^0,1,c
  4737   006C1A  EF11  F036         	goto	u1541
  4738   006C1E  EF13  F036         	goto	u1540
  4739   006C22                     u1541:
  4740   006C22  EF16  F036         	goto	l2392
  4741   006C26                     u1540:
  4742   006C26                     
  4743                           ;LibreriasPIC/lcd_2x16.c: 15:   LATD |= (1<<5);
  4744   006C26  8A8C               	bsf	140,5,c	;volatile
  4745   006C28  EF17  F036         	goto	l2394
  4746   006C2C                     l2392:
  4747                           
  4748                           ;LibreriasPIC/lcd_2x16.c: 18:   LATD &= ~(1<<5);
  4749   006C2C  9A8C               	bcf	140,5,c	;volatile
  4750   006C2E                     l2394:
  4751                           
  4752                           ;LibreriasPIC/lcd_2x16.c: 19:  if(a & 4)
  4753   006C2E  A401               	btfss	Lcd_Port@a^0,2,c
  4754   006C30  EF1C  F036         	goto	u1551
  4755   006C34  EF1E  F036         	goto	u1550
  4756   006C38                     u1551:
  4757   006C38  EF21  F036         	goto	l2398
  4758   006C3C                     u1550:
  4759   006C3C                     
  4760                           ;LibreriasPIC/lcd_2x16.c: 21:   LATD |= (1<<6);
  4761   006C3C  8C8C               	bsf	140,6,c	;volatile
  4762   006C3E  EF22  F036         	goto	l2400
  4763   006C42                     l2398:
  4764                           
  4765                           ;LibreriasPIC/lcd_2x16.c: 24:   LATD &= ~(1<<6);
  4766   006C42  9C8C               	bcf	140,6,c	;volatile
  4767   006C44                     l2400:
  4768                           
  4769                           ;LibreriasPIC/lcd_2x16.c: 25:  if(a & 8)
  4770   006C44  A601               	btfss	Lcd_Port@a^0,3,c
  4771   006C46  EF27  F036         	goto	u1561
  4772   006C4A  EF29  F036         	goto	u1560
  4773   006C4E                     u1561:
  4774   006C4E  EF2C  F036         	goto	l2404
  4775   006C52                     u1560:
  4776   006C52                     
  4777                           ;LibreriasPIC/lcd_2x16.c: 27:   LATD |= (1<<7);
  4778   006C52  8E8C               	bsf	140,7,c	;volatile
  4779   006C54  EF2D  F036         	goto	l202
  4780   006C58                     l2404:
  4781                           
  4782                           ;LibreriasPIC/lcd_2x16.c: 30:   LATD &= ~(1<<7);
  4783   006C58  9E8C               	bcf	140,7,c	;volatile
  4784   006C5A                     l202:
  4785   006C5A  0012               	return		;funcret
  4786   006C5C                     __end_of_Lcd_Port:
  4787                           	callstack 0
  4788                           
  4789                           	psect	rparam
  4790   000000                     
  4791                           	psect	idloc
  4792                           
  4793                           ;Config register IDLOC0 @ 0x200000
  4794                           ;	unspecified, using default values
  4795   200000                     	org	2097152
  4796   200000  FF                 	db	255
  4797                           
  4798                           ;Config register IDLOC1 @ 0x200001
  4799                           ;	unspecified, using default values
  4800   200001                     	org	2097153
  4801   200001  FF                 	db	255
  4802                           
  4803                           ;Config register IDLOC2 @ 0x200002
  4804                           ;	unspecified, using default values
  4805   200002                     	org	2097154
  4806   200002  FF                 	db	255
  4807                           
  4808                           ;Config register IDLOC3 @ 0x200003
  4809                           ;	unspecified, using default values
  4810   200003                     	org	2097155
  4811   200003  FF                 	db	255
  4812                           
  4813                           ;Config register IDLOC4 @ 0x200004
  4814                           ;	unspecified, using default values
  4815   200004                     	org	2097156
  4816   200004  FF                 	db	255
  4817                           
  4818                           ;Config register IDLOC5 @ 0x200005
  4819                           ;	unspecified, using default values
  4820   200005                     	org	2097157
  4821   200005  FF                 	db	255
  4822                           
  4823                           ;Config register IDLOC6 @ 0x200006
  4824                           ;	unspecified, using default values
  4825   200006                     	org	2097158
  4826   200006  FF                 	db	255
  4827                           
  4828                           ;Config register IDLOC7 @ 0x200007
  4829                           ;	unspecified, using default values
  4830   200007                     	org	2097159
  4831   200007  FF                 	db	255
  4832                           
  4833                           	psect	config
  4834                           
  4835                           ;Config register CONFIG1L @ 0x300000
  4836                           ;	PLL Selection
  4837                           ;	PLLSEL = PLL4X, 4x clock multiplier
  4838                           ;	PLL Enable Configuration bit
  4839                           ;	CFGPLLEN = OFF, PLL Disabled (firmware controlled)
  4840                           ;	CPU System Clock Postscaler
  4841                           ;	CPUDIV = NOCLKDIV, CPU uses system clock (no divide)
  4842                           ;	Low Speed USB mode with 48 MHz system clock
  4843                           ;	LS48MHZ = SYS24X4, System clock at 24 MHz, USB clock divider is set to 4
  4844   300000                     	org	3145728
  4845   300000  00                 	db	0
  4846                           
  4847                           ;Config register CONFIG1H @ 0x300001
  4848                           ;	Oscillator Selection
  4849                           ;	FOSC = INTOSCIO, Internal oscillator
  4850                           ;	Primary Oscillator Shutdown
  4851                           ;	PCLKEN = ON, Primary oscillator enabled
  4852                           ;	Fail-Safe Clock Monitor
  4853                           ;	FCMEN = OFF, Fail-Safe Clock Monitor disabled
  4854                           ;	Internal/External Oscillator Switchover
  4855                           ;	IESO = OFF, Oscillator Switchover mode disabled
  4856   300001                     	org	3145729
  4857   300001  28                 	db	40
  4858                           
  4859                           ;Config register CONFIG2L @ 0x300002
  4860                           ;	Power-up Timer Enable
  4861                           ;	nPWRTEN = ON, Power up timer enabled
  4862                           ;	Brown-out Reset Enable
  4863                           ;	BOREN = SBORDIS, BOR enabled in hardware (SBOREN is ignored)
  4864                           ;	Brown-out Reset Voltage
  4865                           ;	BORV = 190, BOR set to 1.9V nominal
  4866                           ;	Low-Power Brown-out Reset
  4867                           ;	nLPBOR = OFF, Low-Power Brown-out Reset disabled
  4868   300002                     	org	3145730
  4869   300002  5E                 	db	94
  4870                           
  4871                           ;Config register CONFIG2H @ 0x300003
  4872                           ;	Watchdog Timer Enable bits
  4873                           ;	WDTEN = OFF, WDT disabled in hardware (SWDTEN ignored)
  4874                           ;	Watchdog Timer Postscaler
  4875                           ;	WDTPS = 32768, 1:32768
  4876   300003                     	org	3145731
  4877   300003  3C                 	db	60
  4878                           
  4879                           ; Padding undefined space
  4880   300004                     	org	3145732
  4881   300004  FF                 	db	255
  4882                           
  4883                           ;Config register CONFIG3H @ 0x300005
  4884                           ;	CCP2 MUX bit
  4885                           ;	CCP2MX = RC1, CCP2 input/output is multiplexed with RC1
  4886                           ;	PORTB A/D Enable bit
  4887                           ;	PBADEN = OFF, PORTB<5:0> pins are configured as digital I/O on Reset
  4888                           ;	Timer3 Clock Input MUX bit
  4889                           ;	T3CMX = RC0, T3CKI function is on RC0
  4890                           ;	SDO Output MUX bit
  4891                           ;	SDOMX = RB3, SDO function is on RB3
  4892                           ;	Master Clear Reset Pin Enable
  4893                           ;	MCLRE = ON, MCLR pin enabled; RE3 input disabled
  4894   300005                     	org	3145733
  4895   300005  D1                 	db	209
  4896                           
  4897                           ;Config register CONFIG4L @ 0x300006
  4898                           ;	Stack Full/Underflow Reset
  4899                           ;	STVREN = ON, Stack full/underflow will cause Reset
  4900                           ;	Single-Supply ICSP Enable bit
  4901                           ;	LVP = ON, Single-Supply ICSP enabled if MCLRE is also 1
  4902                           ;	Dedicated In-Circuit Debug/Programming Port Enable
  4903                           ;	ICPRT = OFF, ICPORT disabled
  4904                           ;	Extended Instruction Set Enable bit
  4905                           ;	XINST = OFF, Instruction set extension and Indexed Addressing mode disabled
  4906                           ;	Background Debugger Enable bit
  4907                           ;	DEBUG = 0x1, unprogrammed default
  4908   300006                     	org	3145734
  4909   300006  85                 	db	133
  4910                           
  4911                           ; Padding undefined space
  4912   300007                     	org	3145735
  4913   300007  FF                 	db	255
  4914                           
  4915                           ;Config register CONFIG5L @ 0x300008
  4916                           ;	Block 0 Code Protect
  4917                           ;	CP0 = OFF, Block 0 is not code-protected
  4918                           ;	Block 1 Code Protect
  4919                           ;	CP1 = OFF, Block 1 is not code-protected
  4920                           ;	Block 2 Code Protect
  4921                           ;	CP2 = OFF, Block 2 is not code-protected
  4922                           ;	Block 3 Code Protect
  4923                           ;	CP3 = OFF, Block 3 is not code-protected
  4924   300008                     	org	3145736
  4925   300008  0F                 	db	15
  4926                           
  4927                           ;Config register CONFIG5H @ 0x300009
  4928                           ;	Boot Block Code Protect
  4929                           ;	CPB = OFF, Boot block is not code-protected
  4930                           ;	Data EEPROM Code Protect
  4931                           ;	CPD = OFF, Data EEPROM is not code-protected
  4932   300009                     	org	3145737
  4933   300009  C0                 	db	192
  4934                           
  4935                           ;Config register CONFIG6L @ 0x30000A
  4936                           ;	Block 0 Write Protect
  4937                           ;	WRT0 = OFF, Block 0 (0800-1FFFh) is not write-protected
  4938                           ;	Block 1 Write Protect
  4939                           ;	WRT1 = OFF, Block 1 (2000-3FFFh) is not write-protected
  4940                           ;	Block 2 Write Protect
  4941                           ;	WRT2 = OFF, Block 2 (04000-5FFFh) is not write-protected
  4942                           ;	Block 3 Write Protect
  4943                           ;	WRT3 = OFF, Block 3 (06000-7FFFh) is not write-protected
  4944   30000A                     	org	3145738
  4945   30000A  0F                 	db	15
  4946                           
  4947                           ;Config register CONFIG6H @ 0x30000B
  4948                           ;	Configuration Registers Write Protect
  4949                           ;	WRTC = OFF, Configuration registers (300000-3000FFh) are not write-protected
  4950                           ;	Boot Block Write Protect
  4951                           ;	WRTB = OFF, Boot block (0000-7FFh) is not write-protected
  4952                           ;	Data EEPROM Write Protect
  4953                           ;	WRTD = OFF, Data EEPROM is not write-protected
  4954   30000B                     	org	3145739
  4955   30000B  E0                 	db	224
  4956                           
  4957                           ;Config register CONFIG7L @ 0x30000C
  4958                           ;	Block 0 Table Read Protect
  4959                           ;	EBTR0 = OFF, Block 0 is not protected from table reads executed in other blocks
  4960                           ;	Block 1 Table Read Protect
  4961                           ;	EBTR1 = OFF, Block 1 is not protected from table reads executed in other blocks
  4962                           ;	Block 2 Table Read Protect
  4963                           ;	EBTR2 = OFF, Block 2 is not protected from table reads executed in other blocks
  4964                           ;	Block 3 Table Read Protect
  4965                           ;	EBTR3 = OFF, Block 3 is not protected from table reads executed in other blocks
  4966   30000C                     	org	3145740
  4967   30000C  0F                 	db	15
  4968                           
  4969                           ;Config register CONFIG7H @ 0x30000D
  4970                           ;	Boot Block Table Read Protect
  4971                           ;	EBTRB = OFF, Boot block is not protected from table reads executed in other blocks
  4972   30000D                     	org	3145741
  4973   30000D  40                 	db	64
  4974                           tosu	equ	0xFFF
  4975                           tosh	equ	0xFFE
  4976                           tosl	equ	0xFFD
  4977                           stkptr	equ	0xFFC
  4978                           pclatu	equ	0xFFB
  4979                           pclath	equ	0xFFA
  4980                           pcl	equ	0xFF9
  4981                           tblptru	equ	0xFF8
  4982                           tblptrh	equ	0xFF7
  4983                           tblptrl	equ	0xFF6
  4984                           tablat	equ	0xFF5
  4985                           prodh	equ	0xFF4
  4986                           prodl	equ	0xFF3
  4987                           indf0	equ	0xFEF
  4988                           postinc0	equ	0xFEE
  4989                           postdec0	equ	0xFED
  4990                           preinc0	equ	0xFEC
  4991                           plusw0	equ	0xFEB
  4992                           fsr0h	equ	0xFEA
  4993                           fsr0l	equ	0xFE9
  4994                           wreg	equ	0xFE8
  4995                           indf1	equ	0xFE7
  4996                           postinc1	equ	0xFE6
  4997                           postdec1	equ	0xFE5
  4998                           preinc1	equ	0xFE4
  4999                           plusw1	equ	0xFE3
  5000                           fsr1h	equ	0xFE2
  5001                           fsr1l	equ	0xFE1
  5002                           bsr	equ	0xFE0
  5003                           indf2	equ	0xFDF
  5004                           postinc2	equ	0xFDE
  5005                           postdec2	equ	0xFDD
  5006                           preinc2	equ	0xFDC
  5007                           plusw2	equ	0xFDB
  5008                           fsr2h	equ	0xFDA
  5009                           fsr2l	equ	0xFD9
  5010                           status	equ	0xFD8

Data Sizes:
    Strings     315
    Constant    0
    Data        16
    BSS         41
    Persistent  0
    Stack       0

Auto Spaces:
    Space          Size  Autos    Used
    COMRAM           95     95      95
    BANK0           160     43     100
    BANK1           256      0       0
    BANK2           256      0       0
    BANK3           256      0       0
    BANK4           256      0       0
    BANK5           256      0       0
    BANK6           256      0       0
    BANK7           256      0       0

Pointer List with Targets:

    fputs@s	PTR const unsigned char  size(2) Largest target is 32
		 -> dbuf(BANK0[32]), 

    fputs@fp	PTR struct _IO_FILE size(2) Largest target is 11
		 -> sprintf@f(BANK0[11]), 

    fputc@fp...source	PTR const unsigned char  size(2) Largest target is 0

    fputc@fp...buffer	PTR unsigned char  size(2) Largest target is 0

    fputc@fp	PTR struct _IO_FILE size(2) Largest target is 11
		 -> sprintf@f(BANK0[11]), 

    vfprintf@ap	PTR PTR void  size(2) Largest target is 2
		 -> sprintf@ap(BANK0[2]), 

    vfprintf@fp	PTR struct _IO_FILE size(2) Largest target is 11
		 -> sprintf@f(BANK0[11]), 

    vfprintf@fmt	PTR const unsigned char  size(2) Largest target is 3
		 -> STR_5(CODE[3]), 

    vfprintf@cfmt	PTR unsigned char  size(2) Largest target is 3
		 -> STR_5(CODE[3]), 

    vfpfcnvrt@fp	PTR struct _IO_FILE size(2) Largest target is 11
		 -> sprintf@f(BANK0[11]), 

    vfpfcnvrt@ap	PTR PTR void  size(2) Largest target is 2
		 -> sprintf@ap(BANK0[2]), 

    vfpfcnvrt@cp	PTR unsigned char  size(2) Largest target is 3
		 -> STR_5(CODE[3]), 

    vfpfcnvrt@fmt	PTR PTR unsigned char  size(2) Largest target is 2
		 -> vfprintf@cfmt(COMRAM[2]), 

    S2002$vp	PTR void  size(2) Largest target is 0

    convarg.vp	PTR void  size(2) Largest target is 0

    dtoa@fp	PTR struct _IO_FILE size(2) Largest target is 11
		 -> sprintf@f(BANK0[11]), 

    pad@buf	PTR unsigned char  size(2) Largest target is 32
		 -> dbuf(BANK0[32]), 

    pad@fp	PTR struct _IO_FILE size(2) Largest target is 11
		 -> sprintf@f(BANK0[11]), 

    sprintf@fmt	PTR const unsigned char  size(2) Largest target is 3
		 -> STR_5(CODE[3]), 

    sprintf@s	PTR unsigned char  size(2) Largest target is 20
		 -> main@strI(BANK0[20]), 

    sprintf@ap	PTR void [1] size(2) Largest target is 2
		 -> ?_sprintf(COMRAM[2]), 

    S1949$source	PTR const unsigned char  size(2) Largest target is 0

    f...source	PTR const unsigned char  size(2) Largest target is 0

    S1949$buffer	PTR unsigned char  size(2) Largest target is 0

    f...buffer	PTR unsigned char  size(2) Largest target is 0

    Lcd_Write_String@a	PTR unsigned char  size(2) Largest target is 20
		 -> STR_35(CODE[16]), STR_34(CODE[16]), STR_33(CODE[12]), STR_32(CODE[17]), 
		 -> STR_31(CODE[12]), STR_30(CODE[17]), STR_29(CODE[13]), STR_28(CODE[16]), 
		 -> STR_27(CODE[17]), STR_26(CODE[12]), STR_25(CODE[17]), STR_24(CODE[13]), 
		 -> STR_23(CODE[16]), STR_22(CODE[17]), STR_21(CODE[17]), STR_20(CODE[17]), 
		 -> STR_19(CODE[15]), STR_18(CODE[17]), STR_17(CODE[15]), STR_16(CODE[14]), 
		 -> STR_15(CODE[9]), STR_14(CODE[9]), STR_13(CODE[9]), STR_12(CODE[8]), 
		 -> STR_11(CODE[8]), STR_10(CODE[9]), STR_9(CODE[8]), STR_8(CODE[8]), 
		 -> STR_7(CODE[17]), STR_6(CODE[7]), main@strI(BANK0[20]), STR_4(CODE[7]), 
		 -> STR_3(CODE[7]), STR_2(CODE[11]), STR_1(CODE[14]), 


Critical Paths under _main in COMRAM

    _main->_sprintf
    _sprintf->_vfprintf
    _vfprintf->_vfpfcnvrt
    _vfpfcnvrt->_dtoa
    _dtoa->_pad
    _pad->_fputs
    _fputs->_fputc
    _fputc->_putch
    _abs->___aomod
    _Lcd_Write_String->_Lcd_Write_Char
    _Lcd_Write_Char->_Lcd_Port
    _Lcd_Set_Cursor->_Lcd_Cmd
    _Lcd_Init->_Lcd_Cmd
    _Lcd_Clear->_Lcd_Cmd
    _Lcd_Cmd->_Lcd_Port

Critical Paths under _main in BANK0

    _main->_sprintf

Critical Paths under _main in BANK1

    None.

Critical Paths under _main in BANK2

    None.

Critical Paths under _main in BANK3

    None.

Critical Paths under _main in BANK4

    None.

Critical Paths under _main in BANK5

    None.

Critical Paths under _main in BANK6

    None.

Critical Paths under _main in BANK7

    None.

Call Graph Tables:

 ---------------------------------------------------------------------------------
 (Depth) Function   	        Calls       Base Space   Used Autos Params    Refs
 ---------------------------------------------------------------------------------
 (0) _main                                                30    30      0   12234
                                             13 BANK0     30    30      0
                          _Lcd_Clear
                           _Lcd_Init
                     _Lcd_Set_Cursor
                   _Lcd_Write_String
                     _OSCILADOR_Init
                          _Port_Init
                            _sprintf
 ---------------------------------------------------------------------------------
 (1) _sprintf                                             21    15      6    5636
                                             89 COMRAM     6     0      6
                                              0 BANK0     13    13      0
                           _vfprintf
 ---------------------------------------------------------------------------------
 (2) _vfprintf                                             8     2      6    5285
                                             81 COMRAM     8     2      6
                          _vfpfcnvrt
 ---------------------------------------------------------------------------------
 (3) _vfpfcnvrt                                           23    17      6    4935
                                             63 COMRAM    18    12      6
                               _dtoa
                              _fputc
 ---------------------------------------------------------------------------------
 (4) _dtoa                                                35    25     10    3693
                                             28 COMRAM    35    25     10
                            ___aodiv
                            ___aomod
                                _abs
                                _pad
 ---------------------------------------------------------------------------------
 (5) _pad                                                 11     5      6    2043
                                             17 COMRAM    11     5      6
                              _fputc
                              _fputs
 ---------------------------------------------------------------------------------
 (6) _fputs                                                7     3      4     953
                                             10 COMRAM     7     3      4
                              _fputc
 ---------------------------------------------------------------------------------
 (4) _fputc                                                9     5      4     704
                                              1 COMRAM     9     5      4
                              _putch
 ---------------------------------------------------------------------------------
 (5) _putch                                                1     1      0      22
                                              0 COMRAM     1     1      0
 ---------------------------------------------------------------------------------
 (5) _abs                                                  4     2      2     142
                                             18 COMRAM     4     2      2
                            ___aomod (ARG)
 ---------------------------------------------------------------------------------
 (5) ___aomod                                             18     2     16     448
                                              0 COMRAM    18     2     16
 ---------------------------------------------------------------------------------
 (5) ___aodiv                                             26    10     16     452
                                              0 COMRAM    26    10     16
 ---------------------------------------------------------------------------------
 (1) _Port_Init                                            0     0      0       0
 ---------------------------------------------------------------------------------
 (1) _OSCILADOR_Init                                       0     0      0       0
 ---------------------------------------------------------------------------------
 (1) _Lcd_Write_String                                     6     4      2    2928
                                              4 COMRAM     6     4      2
                     _Lcd_Write_Char
 ---------------------------------------------------------------------------------
 (2) _Lcd_Write_Char                                       3     3      0     178
                                              1 COMRAM     3     3      0
                           _Lcd_Port
 ---------------------------------------------------------------------------------
 (1) _Lcd_Set_Cursor                                       5     4      1    3040
                                              3 COMRAM     5     4      1
                            _Lcd_Cmd
 ---------------------------------------------------------------------------------
 (1) _Lcd_Init                                             1     1      0     198
                                              3 COMRAM     1     1      0
                            _Lcd_Cmd
                           _Lcd_Port
 ---------------------------------------------------------------------------------
 (1) _Lcd_Clear                                            0     0      0     110
                            _Lcd_Cmd
 ---------------------------------------------------------------------------------
 (2) _Lcd_Cmd                                              2     2      0     110
                                              1 COMRAM     2     2      0
                           _Lcd_Port
 ---------------------------------------------------------------------------------
 (3) _Lcd_Port                                             1     1      0      88
                                              0 COMRAM     1     1      0
 ---------------------------------------------------------------------------------
 Estimated maximum stack depth 6
 ---------------------------------------------------------------------------------

 Call Graph Graphs:

 _main (ROOT)
   _Lcd_Clear
     _Lcd_Cmd
       _Lcd_Port
   _Lcd_Init
     _Lcd_Cmd
     _Lcd_Port
   _Lcd_Set_Cursor
     _Lcd_Cmd
   _Lcd_Write_String
     _Lcd_Write_Char
       _Lcd_Port
   _OSCILADOR_Init
   _Port_Init
   _sprintf
     _vfprintf
       _vfpfcnvrt
         _dtoa
           ___aodiv
           ___aomod
           _abs
             ___aomod (ARG)
           _pad
             _fputc
               _putch
             _fputs
               _fputc
         _fputc

 Address spaces:
Name               Size   Autos  Total    Cost      Usage
BIGRAM             7FF      0       0      35        0.0%
EEDATA             100      0       0       0        0.0%
BITBANK7           100      0       0      18        0.0%
BANK7              100      0       0      19        0.0%
BITBANK6           100      0       0      16        0.0%
BANK6              100      0       0      17        0.0%
BITBANK5           100      0       0      14        0.0%
BANK5              100      0       0      15        0.0%
BITBANK4           100      0       0      12        0.0%
BANK4              100      0       0      13        0.0%
BITBANK3           100      0       0      10        0.0%
BANK3              100      0       0      11        0.0%
BITBANK2           100      0       0       8        0.0%
BANK2              100      0       0       9        0.0%
BITBANK1           100      0       0       6        0.0%
BANK1              100      0       0       7        0.0%
BITBANK0            A0      0       0       4        0.0%
BANK0               A0     2B      64       5       62.5%
BITCOMRAM           5F      0       0       0        0.0%
COMRAM              5F     5F      5F       1      100.0%
BITBIGSFRllhll      21      0       0      32        0.0%
BITBIGSFRhhhl       1D      0       0      21        0.0%
BITBIGSFRhhhh        E      0       0      20        0.0%
BITBIGSFRlhhhl       C      0       0      25        0.0%
BITBIGSFRhhlh        9      0       0      22        0.0%
BITBIGSFRlll         9      0       0      33        0.0%
BITBIGSFRlhhhhl      7      0       0      24        0.0%
BITBIGSFRlhhhhh      7      0       0      23        0.0%
BITBIGSFRlhhl        6      0       0      26        0.0%
BITBIGSFRllhhh       5      0       0      27        0.0%
BITBIGSFRllhlhh      4      0       0      29        0.0%
BITBIGSFRllhlhh      1      0       0      30        0.0%
BITBIGSFRllhlhl      1      0       0      31        0.0%
BITBIGSFRllhhl       1      0       0      28        0.0%
BIGSFR               0      0       0     200        0.0%
BITSFR_1             0      0       0     200        0.0%
SFR_1                0      0       0     200        0.0%
BITSFR               0      0       0     200        0.0%
SFR                  0      0       0     200        0.0%
STACK                0      0       0       2        0.0%
NULL                 0      0       0       0        0.0%
ABS                  0      0      C3      34        0.0%
DATA                 0      0      C3       3        0.0%
CODE                 0      0       0       0        0.0%


Microchip Technology PIC18 Macro Assembler V2.40 build 20220703182018 
Symbol Table                                                                                   Thu Mar 09 11:39:36 2023

                      l39 6A0E                       l202 6C5A                       l220 6ADA  
                     l205 6A44                       l214 6CC0                       l208 69EC  
                     l217 6D38                       l226 6E30                       l414 7E72  
                     l423 7740                       l450 7AE2                       l426 7788  
                     l363 6A12                       l427 7774                       l444 7A44  
                     l605 7334                       l366 6A24                       l446 7A64  
                     l463 7C6E                       l455 7B7E                       l472 7D5E  
                     l618 71AC                       l459 7BF0                       l476 7DDC  
                     l468 7D0A                       l488 6A6C                       _abs 6ADC  
                     _pad 6D3A                       wreg 000FE8                _TXSTA1bits 000FAC  
                    l1200 73C2                      l1202 73CA                      l1203 7410  
                    ?_abs 0013                      l1221 7048                      l1214 75B0  
                    l1231 6B12                      l1234 6B1A                      l2210 6E32  
                    l1227 6BAC                      l2300 7144                      l2220 6EB4  
                    l2212 6E44                      l2302 7156                      l2206 6A12  
                    l1246 6EFA                      l2214 6E56                      l1254 6B5E  
                    l2230 6B3E                      l1191 6D5C                      l2400 6C44  
                    l2240 71E4                      l2232 71AE                      l2304 715C  
                    l2208 6A20                      l2216 6E60                      l2224 6B1C  
                    l2320 6D7C                      l2312 6D3A                      l1169 6BFE  
                    l2402 6C52                      l2250 7240                      l2242 71F2  
                    l2234 71B2                      l2306 716C                      l2218 6E7E  
                    l2226 6B28                      l2322 6D80                      l2314 6D48  
                    l2330 7336                      l2410 6F2E                      l1195 6DB2  
                    l2404 6C58                      l2260 72AA                      l2252 7248  
                    l2244 7212                      l2236 71C0                      l2308 718C  
                    l2228 6B3A                      l2324 6D9E                      l2316 6D54  
                    l2340 73B6                      l2332 7356                      l2420 6F88  
                    l2412 6F3C                      l2270 72F4                      l2262 72CA  
                    l2254 725C                      l2246 7216                      l2238 71E0  
                    l2326 6ADC                      l2318 6D68                      l2350 7404  
                    l2342 73D2                      l2334 736A                      l2422 6FDE  
                    l2414 6F40                      l2430 7020                      l2406 6EFC  
                    l2440 6A30                      l2600 6A5E                      l2272 7314  
                    l2264 72CC                      l2256 726A                      l2248 7222  
                    l2280 705C                      l2328 6AF6                      l2360 74A8  
                    l2352 740C                      l2344 73E2                      l2336 737A  
                    l2416 6F50                      l2408 6F20                      l2442 6A32  
                    l2530 6C80                      l2450 6AB4                      l2610 6A68  
                    l2602 6A60                      l2266 72DE                      l2258 727C  
                    l2290 70CC                      l2282 707C                      l2370 7550  
                    l2362 74AE                      l2354 7418                      l2346 73E8  
                    l2338 739A                      l2426 700E                      l2418 6F6C  
                    l2444 6A42                      l2436 6A28                      l2524 69E0  
                    l2540 6CBA                      l2532 6C86                      l2460 6AD0  
                    l2452 6ABC                      l2612 6A6A                      l2604 6A62  
                    l2268 72E4                      l2292 70D4                      l2284 7080  
                    l2276 704A                      l2372 756A                      l2364 74B4  
                    l2356 7420                      l2348 73F8                      l2620 6BD0  
                    l2700 75C2                      l2390 6C26                      l2382 6C02  
                    l2438 6A2A                      l2550 6CE4                      l2542 6CC2  
                    l2534 6C90                      l2526 6C5E                      l2462 6AD8  
                    l2454 6ABE                      l2446 6AA6                      l2606 6A64  
                    l2294 70E8                      l2286 708E                      l2278 704E  
                    l2374 757A                      l2358 7426                      l2366 7518  
                    l2470 6BA4                      l2622 6BEC                      l2614 6BAE  
                    l2710 7616                      l2702 75CC                      l2392 6C2C  
                    l2384 6C10                      l2560 6D14                      l2552 6CF2  
                    l2544 6CCA                      l2536 6CA2                      l2528 6C6E  
                    l2456 6AC6                      l2448 6AB2                      l2608 6A66  
                    l2296 70F6                      l2288 70AE                      l2376 7580  
                    l2368 7532                      l2464 6B60                      l2616 6BC0  
                    l2800 788E                      l2712 761A                      l2704 75DA  
                    l2394 6C2E                      l2386 6C16                      l2570 6D32  
                    l2562 6D1A                      l2554 6CF8                      l2546 6CD0  
                    l2538 6CB4                      l2458 6ACE                      l2474 69FE  
                    l2298 7124                      l2378 7590                      l2466 6B6C  
                    l2618 6BC8                      l2810 78D4                      l2802 789A  
                    l2730 764C                      l2722 763A                      l2714 7624  
                    l2706 75E6                      l2396 6C3C                      l2388 6C18  
                    l2564 6D20                      l2556 6D08                      l2548 6CDE  
                    l2572 6DB4                      l2580 6A46                      l2468 6B88  
                    l2900 7C48                      l2820 7928                      l2812 78E0  
                    l2804 78B0                      l2740 76A2                      l2732 7658  
                    l2716 7630                      l2708 75FC                      l2398 6C42  
                    l2566 6D26                      l2558 6D0E                      l2574 6DC0  
                    l2590 6A54                      l2582 6A4C                      l2910 7C96  
                    l2902 7C4E                      l2830 7980                      l2822 7938  
                    l2814 78F6                      l2806 78B6                      l2750 76E8  
                    l2742 76A6                      l2734 7662                      l2568 6D2C  
                    l2576 6DF0                      l2592 6A56                      l2584 6A4E  
                    l2920 7CEA                      l2912 7CAC                      l2904 7C5C  
                    l2840 79CC                      l2824 7942                      l2816 7910  
                    l2808 78C6                      l2760 772E                      l2752 76F0  
                    l2744 76AC                      l2736 767E                      l2728 7642  
                    l2578 6DF4                      l2594 6A58                      l2586 6A50  
                    l2930 7D6C                      l2922 7CF8                      l2914 7CC6  
                    l2906 7C7C                      l2850 7A36                      l2842 79EA  
                    l2834 79A4                      l2818 791A                      l2770 779A  
                    l2762 774E                      l2754 76FE                      l2746 76C8  
                    l2738 768A                      l2596 6A5A                      l2588 6A52  
                    l2932 7D7A                      l2940 7DBC                      l2924 7D18  
                    l2916 7CD0                      l2908 7C8A                      l2860 7AA2  
                    l2852 7A52                      l2836 79AC                      l2828 7962  
                    l2780 77EC                      l2772 77AA                      l2764 7754  
                    l2756 770A                      l2748 76CE                      l2598 6A5C  
                    l2950 7E1A                      l2942 7DCA                      l2934 7D86  
                    l2926 7D3E                      l2918 7CDE                      l2870 7AFE  
                    l2862 7ABC                      l2854 7A72                      l2846 7A0E  
                    l2790 783C                      l2782 77FA                      l2774 77B8  
                    l2766 7762                      l2758 7720                      l2694 75B2  
                    ?_pad 0012                      l2952 7E34                      l2944 7DEA  
                    l2936 7D9C                      l2928 7D4C                      l2880 7B52  
                    l2872 7B0A                      l2856 7A80                      l2864 7AC2  
                    l2848 7A28                      l2792 7848                      l2784 7806  
                    l2776 77C4                      l2768 7782                      l2696 75BA  
                    l2954 7E3E                      l2946 7DF8                      l2938 7DB6  
                    l2890 7BDE                      l2882 7B5E                      l2874 7B20  
                    l2866 7AD0                      l2858 7A8C                      l2794 785E  
                    l2786 781C                      l2778 77DA                      l2962 7E72  
                    l2698 75BE                      l2956 7E4C                      l2948 7E04  
                    l2892 7BFE                      l2884 7B6C                      l2876 7B3A  
                    l2868 7AF0                      l2796 7870                      l2788 782E  
                    l2958 7E58                      l2894 7C0C                      l2886 7B8C  
                    l2878 7B44                      l2798 7880                      l2992 7E88  
                    l2896 7C18                      l2888 7BD0                      l2898 7C2E  
                    STR_1 7F74                      STR_2 7FC0                      STR_3 7FED  
                    STR_4 7FED                      STR_5 7FFB                      STR_6 7FF4  
                    STR_7 7ED4                      STR_8 7FDD                      STR_9 7FE5  
                    u2000 7AF0                      u2001 7AEC                      u1210 6A20  
                    u2010 7B6C                      u1211 6A1C                      u2011 7B68  
                    u1300 7240                      u1220 6E44                      u2100 7D18  
                    u2020 7B8C                      u1301 723C                      u1221 6E40  
                    u2101 7D14                      u2021 7B88                      u1310 726A  
                    u1230 6E56                      u2110 7D28                      u2030 7B9C  
                    u1311 7266                      u1231 6E52                      u2111 7D22  
                    u2031 7B96                      u1320 72AA                      u1240 6E7E  
                    u1400 6D48                      u2120 7D4C                      u2040 7BBE  
                    u1321 72A6                      u1241 6E7A                      u1401 6D44  
                    u2121 7D48                      u2041 7BB8                      u1330 72F4  
                    u1250 6EB4                      u1410 6D9E                      u2130 7D6C  
                    u2050 7BDE                      u1331 72F0                      u1251 6EB0  
                    u1411 6D9A                      u2131 7D68                      u2051 7BDA  
                    u1340 705C                      u1420 6AF6                      u1260 6B5E  
                    u1500 7550                      u2140 7DCA                      u2116 7D2A  
                    u2060 7BFE                      u2036 7B9E                      u1341 7058  
                    u1421 6AF2                      u1261 6B5A                      u1501 754C  
                    u2141 7DC6                      u2061 7BFA                      u1270 71C0  
                    u1350 708E                      u1510 756A                      u1430 7366  
                    u2150 7DEA                      u2070 7C5C                      u2046 7BC0  
                    _LATB 000F8A                      u1271 71BC                      u1351 708A  
                    u1511 7566                      u1431 7360                      u2151 7DE6  
                    u2071 7C58                      u2207 7902                      u1280 71F2  
                    u1360 70CC                      u1520 757A                      u1440 7368  
                    u1600 6BA4                      u2080 7C7C                      _LATD 000F8C  
                    u1281 71EE                      u1361 70C8                      u1521 7576  
                    u1601 6BA0                      u2081 7C78                      u2217 798C  
                    u1530 6C10                      u1370 70F6                      u1450 737A  
                    u2090 7CF8                      u1531 6C0C                      u1291 721C  
                    u1371 70F2                      u1451 7376                      u2091 7CF4  
                    u2307 7C3A                      u2227 79F6                      u1540 6C26  
                    u1700 6CA2                      u1380 7124                      u1460 73B6  
                    u1541 6C22                      u1701 6C9E                      u1381 7120  
                    u1461 73B2                      u2317 7C64                      u2237 7A1A  
                    u1550 6C3C                      u1710 6DEC                      u1390 716C  
                    u1470 73E2                      u1551 6C38                      u2407 6CD6  
                    u1391 7168                      u1471 73DE                      u2327 7CB8  
                    u2247 7A5A                      u2167 7608                      u1560 6C52  
                    u1720 6E20                      u1480 73F8                      u1800 772E  
                    u1561 6C4E                      u2417 6CEA                      u1481 73F4  
                    u2337 7D00                      u2257 7AAE                      u1801 772A  
                    u2177 7696                      u1730 6E30                      u1490 7532  
                    u1570 6F20                      u1810 774E                      u2427 6CFE  
                    u1731 6E2C                      u1491 752E                      u1571 6F1C  
                    u2347 7D54                      u2267 7AD8                      u1811 774A  
                    u2187 7736                      u1580 6F6C                      u1900 78C6  
                    u1820 7762                      u2437 6A38                      u1717 6DE2  
                    u1581 6F68                      u2357 7DA8                      u2277 7B2C  
                    u1901 78C2                      u2197 776A                      u1821 775E  
                    u1590 6F88                      u1910 795E                      u1830 7782  
                    u1727 6E16                      u1591 6F84                      u2367 7DD2  
                    u2287 7B74                      u1911 795A                      u1831 777E  
                    u1840 779A                      u2377 7E26                      u2297 7BE6  
                    u1841 7796                      u1690 6C6E                      u1930 79C8  
                    u1850 77AA                      u1691 6C6A                      u2387 6AC0  
                    u1931 79C4                      u1851 77A6                      u1924 7974  
                    u1860 77EC                      u1780 76C8                      u2397 6AD2  
                    u1925 7970                      u1861 77E8                      u1781 76C4  
                    u1950 7A36                      u1870 782E                      u1790 76E8  
                    u1951 7A32                      u1871 782A                      u1791 76E4  
                    u1960 7A44                      u1944 79DE                      u1880 7870  
                    u1961 7A40                      u1945 79DA                      u1881 786C  
                    u1970 7A52                      u1890 7880                      u1971 7A4E  
                    u1891 787C                      u1980 7A72                      u1981 7A6E  
                    u1990 7AD0                      u1991 7ACC                      _WPUB 000F85  
                    abs@a 0013         ?_Lcd_Write_String 0005                      _dbuf 0094  
                    _main 75B2                      _dtoa 7336                      _prec 008D  
                    pad@i 0019                      pad@p 0016                      fsr0h 000FEA  
                    fsr1h 000FE2                      indf0 000FEF                      fsr2h 000FDA  
                    fsr0l 000FE9                      indf2 000FDF                      fsr1l 000FE1  
                    pad@w 001B                      fsr2l 000FD9                      start 0000  
      ??_Lcd_Write_String 0007           __end_of_Lcd_Cmd 6A46              ___param_bank 000000  
                   ??_abs 0015                     ??_pad 0018           __end_of___aodiv 7336  
                   ?_main 0001                     ?_dtoa 001D           __end_of___aomod 71AE  
                   STR_10 7FCB                     STR_11 7FE5                     STR_12 7FDD  
                   STR_20 7F07                     STR_13 7FD4                     STR_21 7EF6  
                   STR_14 7FCB                     STR_30 7EE5                     STR_22 7F07  
                   STR_15 7FD4                     STR_31 7F9C                     STR_23 7F18  
                   STR_32 7EE5                     STR_24 7F8F                     STR_16 7F66  
                   STR_33 7FB4                     STR_17 7F48                     STR_25 7EE5  
                   STR_26 7FA8                     STR_34 7F38                     STR_18 7EC3  
                   STR_27 7EE5                     STR_19 7F57                     STR_35 7F28  
                   STR_28 7F18                     STR_29 7F82              vfpfcnvrt@fmt 0042  
                   _PORTB 000F81                     _PORTD 000F83                     _TRISB 000F93  
                   _TRISD 000F95                     _flags 008F                     _fputc 6E32  
                   _fputs 6B1C                     pad@fp 0012                     _width 008B  
                   _putch 6A10                     main@i 0083                     main@j 0085  
                   dtoa@d 001F                     dtoa@i 003D                     dtoa@n 0035  
                   dtoa@p 0031                     dtoa@s 003F                     dtoa@w 0033  
                   tablat 000FF5                     status 000FD8           __end_of_sprintf 6C00  
        __end_of_Lcd_Init 6D3A          __end_of_Lcd_Port 6C5C           __initialization 6A6E  
            __end_of_main 7EC2              __end_of_dtoa 75B2                    ??_main 006D  
                  ??_dtoa 0027             __activetblptr 000002          ??_OSCILADOR_Init 0001  
                  ?_fputc 0002                    ?_fputs 000B                    _ADRESH 000FC4  
                  _ADRESL 000FC3                    ?_putch 0001                    _ANSELD 000F5E  
                  _RCREG1 000FAE                    _RCSTA1 000FAB                 ??_Lcd_Cmd 0002  
                  _SPBRG1 000FAF                    _TXREG1 000FAD                    _TXSTA1 000FAC  
            vfprintf@cfmt 0058                 ??___aodiv 0011                 ??___aomod 0011  
                  clear_0 6A94                    isa$std 000001                    pad@buf 0014  
                  dtoa@fp 001D                    fputc@c 0002                    fputs@c 000F  
                  fputs@i 0010                    fputs@s 000B              __mediumconst 7EC2  
                  tblptrh 000FF7                    tblptrl 000FF6                    tblptru 000FF8  
                  putch@c 0001          __end_of_vfprintf 6BAE                 ??_sprintf 0060  
         Lcd_Set_Cursor@a 0005           Lcd_Set_Cursor@b 0004           Lcd_Set_Cursor@y 0007  
         Lcd_Set_Cursor@z 0006                __accesstop 0060   __end_of__initialization 6A9A  
       __end_of_Lcd_Clear 69EE             ___rparam_used 000001            __pcstackCOMRAM 0001  
            __pidataBANK0 69EE             __end_of_fputc 6EFC             __end_of_fputs 6B60  
           __end_of_putch 6A26            _Lcd_Set_Cursor 6C5C                 ?_Lcd_Init 0001  
               ?_Lcd_Port 0001                   ??_fputc 0006                   ??_fputs 000F  
                 ??_putch 0001                __pbssBANK0 008B         __end_of_Port_Init 6A6E  
  __end_of_Lcd_Set_Cursor 6CC2                   _SPBRGH1 000FB0                ??_Lcd_Init 0004  
                 _SSP1ADD 000FC8                   _SSP1BUF 000FC9                ??_Lcd_Port 0001  
          _Lcd_Write_Char 6AA4                   _Lcd_Cmd 6A26                   __Hparam 0000  
                 __Lparam 0000                   ___aodiv 71AE                   ___aomod 704A  
               ?_vfprintf 0052                   __pcinit 6A6E                   __ramtop 0800  
         ?_Lcd_Set_Cursor 0004                   __ptext0 75B2                   __ptext1 6BAE  
                 __ptext2 6B60                   __ptext3 6EFC                   __ptext4 7336  
                 __ptext5 6D3A                   __ptext6 6B1C                   __ptext7 6E32  
                 __ptext8 6A10                   __ptext9 6ADC                   _sprintf 6BAE  
  __end_of_Lcd_Write_Char 6ADC      end_of_initialization 6A9A                   fputc@fp 0004  
           __Lmediumconst 7EC2                   fputs@fp 000D         __end_of_vfpfcnvrt 704A  
                 postdec1 000FE5                   postdec2 000FDD                   postinc0 000FEE  
                 postinc1 000FE6                   postinc2 000FDE          vfpfcnvrt@convarg 0048  
               Lcd_Port@a 0001                ??_vfprintf 0058                 _PORTBbits 000F81  
               _TRISBbits 000F93                 _TRISCbits 000F94                 _TRISEbits 000F96  
              main@i_1471 0087                main@i_1472 0089           ?_Lcd_Write_Char 0001  
       Lcd_Write_String@a 0005         Lcd_Write_String@i 0009                 _Lcd_Clear 69E0  
             vfpfcnvrt@ap 0044               vfpfcnvrt@cp 0050               vfpfcnvrt@fp 0040  
        _Lcd_Write_String 6DB4       start_initialization 6A6E               __end_of_abs 6B1C  
             __end_of_pad 6DB4                 _Keypad4x4 00B4               vfprintf@fmt 0054  
              ?_Lcd_Clear 0001                 _Port_Init 6A46               __pdataBANK0 00B4  
         Lcd_Write_Char@a 0004           Lcd_Write_Char@y 0003             __pcstackBANK0 0060  
        ___aodiv@dividend 0001               _btn1_pushed 0092               _btn2_pushed 0091  
                ?_Lcd_Cmd 0001                 _dtoa$2030 002F          ??_Lcd_Set_Cursor 0005  
           __pmediumconst 7EC2                  ?___aodiv 0001                  ?___aomod 0001  
        ___aodiv@quotient 0013                ?_Port_Init 0001                  _BAUDCON1 000FB8  
                ?_sprintf 005A                  _LATBbits 000F8A                  _LATEbits 000F8D  
                _PIE1bits 000F9D                  Lcd_Cmd@a 0003                  _PIR1bits 000F9E  
             ??_Lcd_Clear 0004                  _SSP1CON1 000FC6                  _SSP1STAT 000FC7  
               _vfpfcnvrt 6EFC        _two_buttons_pushed 0090                _ADCON0bits 000FC2  
              _ADCON1bits 000FC1                _ADCON2bits 000FC0          ??_Lcd_Write_Char 0002  
                _Lcd_Init 6CC2                  _Lcd_Port 6C00               _INTCON2bits 000FF1  
               copy_data0 6A82  __end_of_Lcd_Write_String 6E32            _OSCILADOR_Init 69FE  
                __Hrparam 0000                vfprintf@ap 0056                  __Lrparam 0000  
              vfprintf@fp 0052               ??_Port_Init 0001                ?_vfpfcnvrt 0040  
         ___aodiv@divisor 0009           ___aodiv@counter 0011                _ANSELBbits 000F5C  
              _ANSELCbits 000F5D                _ANSELEbits 000F5F                sprintf@fmt 005C  
                __ptext10 704A                  __ptext11 71AE                  __ptext20 6C00  
                __ptext12 6A46                  __ptext13 69FE                  __ptext14 6DB4  
                __ptext15 6AA4                  __ptext16 6C5C                  __ptext17 6CC2  
                __ptext18 69E0                  __ptext19 6A26              _SSP1CON1bits 000FC6  
            _SSP1CON2bits 000FC5    __end_of_OSCILADOR_Init 6A10                _ESTADO_APP 0093  
                isa$xinst 000000                  _vfprintf 6B60              _SSP1STATbits 000FC7  
                main@strI 006F          ___aomod@dividend 0001        Lcd_Write_Char@temp 0002  
               sprintf@ap 0060           ?_OSCILADOR_Init 0001                _RCSTA1bits 000FAB  
              _OSCCONbits 000FD3           ___aomod@divisor 0009               ??_vfpfcnvrt 0046  
         ___aomod@counter 0011        Lcd_Set_Cursor@temp 0008                  sprintf@f 0062  
                sprintf@s 005A               _SSPCON2bits 000FC5              ___aodiv@sign 0012  
            ___aomod@sign 0012  
